(dp0
Vl_elbow_y
p1
F0.92
sVr_hip_y
p2
I5
sVr_knee_y
p3
F-2.59
sVhead_y
p4
F3.0199999999999996
sVhead_z
p5
F0.44
sVr_arm_z
p6
I0
sVr_ankle_y
p7
I0
sVr_shoulder_x
p8
I-35
sVr_shoulder_y
p9
F-1.0799999999999983
sVr_hip_z
p10
I0
sVr_hip_x
p11
I0
sVr_elbow_y
p12
F1.01
sVl_arm_z
p13
I0
sVl_hip_x
p14
I5
sVl_hip_y
p15
I5
sVl_hip_z
p16
I0
sVabs_x
p17
I1
sVabs_y
p18
I5
sVabs_z
p19
I0
sVl_ankle_y
p20
I0
sVbust_y
p21
F3.21
sVbust_x
p22
I0
sVl_knee_y
p23
F-4.18
sVl_shoulder_x
p24
I37
sVl_shoulder_y
p25
F-1.6899999999999977
s.