(dp0
Vl_elbow_y
p1
F-60.97
sVr_hip_y
p2
F84.88
sVr_knee_y
p3
F133.58
sVhead_y
p4
F-16.33
sVhead_z
p5
F-0.44
sVr_arm_z
p6
F-4.26
sVr_ankle_y
p7
F-6.37
sVr_shoulder_x
p8
F-181.56
sVr_shoulder_y
p9
F32.150000000000006
sVr_hip_z
p10
F-0.04
sVr_hip_x
p11
F2.51
sVr_elbow_y
p12
F-58.24
sVl_arm_z
p13
F2.95
sVl_hip_x
p14
F3.74
sVl_hip_y
p15
F81.74
sVl_hip_z
p16
F1.1
sVabs_x
p17
F-3.3
sVabs_y
p18
F-12.26
sVabs_z
p19
F0.04
sVl_ankle_y
p20
F-23.16
sVbust_y
p21
F-27.3
sVbust_x
p22
F-0.57
sVl_knee_y
p23
F129.27
sVl_shoulder_x
p24
F181.47
sVl_shoulder_y
p25
F33.120000000000005
s.