(dp0
Vl_elbow_y
p1
F-87.69
sVr_hip_y
p2
F-99.47
sVr_knee_y
p3
F133.93
sVhead_y
p4
F-20.15
sVhead_z
p5
F-2.49
sVr_arm_z
p6
F8.04
sVr_ankle_y
p7
F46.29
sVr_shoulder_x
p8
F-6.700000000000003
sVr_shoulder_y
p9
F80.0
sVr_hip_z
p10
F-1.71
sVr_hip_x
p11
F-1.1
sVr_elbow_y
p12
F-88.04
sVl_arm_z
p13
F2.86
sVl_hip_x
p14
F8.04
sVl_hip_y
p15
F-100.68
sVl_hip_z
p16
F-0.84
sVabs_x
p17
F3.38
sVabs_y
p18
F45.32
sVabs_z
p19
F0.57
sVl_ankle_y
p20
F45.23
sVbust_y
p21
F-23.34
sVbust_x
p22
F-8.66
sVl_knee_y
p23
F132.0
sVl_shoulder_x
p24
F1.25
sVl_shoulder_y
p25
F80.0
s.