(dp0
S'rbck'
p1
(lp2
(dp3
Vl_elbow_y
p4
F-70.64
sVr_hip_y
p5
F-24.04
sVr_knee_y
p6
F56.75
sVhead_y
p7
F-19.27
sVhead_z
p8
F-3.37
sVr_arm_z
p9
F4.35
sVr_ankle_y
p10
F45.23
sVr_shoulder_x
p11
F4.640000000000001
sVr_shoulder_y
p12
F85.43
sVr_hip_z
p13
F-1.36
sVr_hip_x
p14
F-1.27
sVr_elbow_y
p15
F-77.93
sVl_arm_z
p16
F-8.57
sVl_hip_x
p17
F4.35
sVl_hip_y
p18
F-103.58
sVl_hip_z
p19
F6.64
sVabs_x
p20
F3.38
sVabs_y
p21
F45.23
sVabs_z
p22
F-0.22
sVl_ankle_y
p23
F45.32
sVbust_y
p24
F-23.6
sVbust_x
p25
F-8.84
sVl_knee_y
p26
F132.7
sVl_shoulder_x
p27
F3.3599999999999994
sVl_shoulder_y
p28
F64.33000000000001
sasS'rfwd'
p29
(lp30
(dp31
g4
F-70.64
sg5
F-99.12
sg6
F133.14
sg7
F-19.27
sg8
F-3.37
sg9
F4.26
sg10
F45.49
sg11
F4.730000000000004
sg12
F85.25
sg13
F-1.27
sg14
F-0.92
sg15
F-77.93
sg16
F-8.57
sg17
F4.7
sg18
F-25.34
sg19
F6.29
sg20
F3.65
sg21
F45.32
sg22
F-1.01
sg23
F45.23
sg24
F-23.6
sg25
F-8.84
sg26
F53.93
sg27
F3.269999999999996
sg28
F64.24000000000001
sas.