(lp0
(dp1
Vl_elbow_y
p2
F-87.78
sVr_hip_y
p3
F-45.32
sVr_knee_y
p4
F72.48
sVhead_y
p5
F-18.97
sVhead_z
p6
F-2.79
sVr_arm_z
p7
F8.04
sVr_ankle_y
p8
F44.97
sVr_shoulder_x
p9
F-7.230000000000004
sVr_shoulder_y
p10
F63.629999999999995
sVr_hip_z
p11
F-26.95
sVr_hip_x
p12
F-1.98
sVr_elbow_y
p13
F-87.43
sVl_arm_z
p14
F2.51
sVl_hip_x
p15
F8.31
sVl_hip_y
p16
F-74.31
sVl_hip_z
p17
F2.68
sVabs_x
p18
F3.74
sVabs_y
p19
F44.88
sVabs_z
p20
F1.54
sVl_ankle_y
p21
F45.23
sVbust_y
p22
F-24.22
sVbust_x
p23
F-8.31
sVl_knee_y
p24
F93.14
sVl_shoulder_x
p25
F0.8100000000000023
sVl_shoulder_y
p26
F64.15
sa(dp27
g2
F-87.87
sg3
F-96.4
sg4
F125.23
sg5
F-19.27
sg6
F-2.79
sg7
F7.96
sg8
F44.97
sg9
F-7.140000000000001
sg10
F63.629999999999995
sg11
F-27.21
sg12
F-1.98
sg13
F-87.43
sg14
F2.51
sg15
F8.48
sg16
F-74.31
sg17
F1.36
sg18
F3.74
sg19
F44.97
sg20
F0.75
sg21
F45.23
sg22
F-24.31
sg23
F-8.31
sg24
F93.41
sg25
F1.0799999999999983
sg26
F64.15
sa(dp28
g2
F-87.25
sg3
F-100.26
sg4
F131.38
sg5
F-19.27
sg6
F-3.67
sg7
F7.96
sg8
F45.32
sg9
F-7.049999999999997
sg10
F63.629999999999995
sg11
F-9.63
sg12
F-1.8
sg13
F-87.43
sg14
F2.59
sg15
F7.87
sg16
F-32.019999999999996
sg17
F3.74
sg18
F3.65
sg19
F45.41
sg20
F1.01
sg21
F45.23
sg22
F-24.31
sg23
F-8.31
sg24
F58.15
sg25
F1.5999999999999943
sg26
F64.07
sa.