((dp0
S'shift'
p1
(lp2
(dp3
Vl_elbow_y
p4
F0.0
sVr_elbow_y
p5
F0.0
sVr_knee_y
p6
F6.609049506855984
sVhead_y
p7
F0.0
sVhead_z
p8
F0.0
sVr_arm_z
p9
F0.0
sVr_ankle_y
p10
F0.0
sVr_shoulder_x
p11
F-5.0
sVr_shoulder_y
p12
F0.0
sVr_hip_z
p13
F0.0
sVr_hip_x
p14
F0.0
sVr_hip_y
p15
F-5.6960820747937255
sVl_arm_z
p16
F0.0
sVl_hip_x
p17
F0.0
sVl_hip_y
p18
F5.47307947466497
sVl_hip_z
p19
F0.0
sVabs_x
p20
I0
sVabs_y
p21
I6
sVabs_z
p22
F0.0
sVl_ankle_y
p23
F-4.80787474250675
sVbust_y
p24
I-6
sVbust_x
p25
I0
sVl_knee_y
p26
F0.24776269990408092
sVl_shoulder_x
p27
F5.0
sVl_shoulder_y
p28
F0.0
sa(dp29
g4
F0.0
sg5
F0.0
sg6
F6.609049506855984
sg7
F0.0
sg8
F0.0
sg9
F0.0
sg10
F0.0
sg11
F-5.0
sg12
F0.0
sg13
F0.0
sg14
F0.0
sg15
F-5.6960820747937255
sg16
F0.0
sg17
F0.0
sg18
F5.47307947466497
sg19
F0.0
sg20
I0
sg21
I9
sg22
F0.0
sg23
F-4.80787474250675
sg24
I-9
sg25
I0
sg26
F0.24776269990408092
sg27
F5.0
sg28
F0.0
sa(dp30
g4
F0.0
sg5
F0.0
sg6
F6.609049506855984
sg7
F0.0
sg8
F0.0
sg9
F0.0
sg10
F0.0
sg11
F-5.0
sg12
F0.0
sg13
F0.0
sg14
F0.0
sg15
F-5.6960820747937255
sg16
F0.0
sg17
F0.0
sg18
F5.47307947466497
sg19
F0.0
sg20
I0
sg21
I12
sg22
F0.0
sg23
F-4.80787474250675
sg24
I-12
sg25
I0
sg26
F0.24776269990408092
sg27
F5.0
sg28
F0.0
sa(dp31
g4
F0.0
sg5
F0.0
sg6
F6.609049506855984
sg7
F0.0
sg8
F0.0
sg9
F0.0
sg10
F0.0
sg11
F-5.0
sg12
F0.0
sg13
F0.0
sg14
F0.0
sg15
F-5.6960820747937255
sg16
F0.0
sg17
F0.0
sg18
F5.47307947466497
sg19
F0.0
sg20
I3
sg21
I6
sg22
F0.0
sg23
F-4.80787474250675
sg24
I-6
sg25
I-3
sg26
F0.24776269990408092
sg27
F5.0
sg28
F0.0
sa(dp32
g4
F0.0
sg5
F0.0
sg6
F6.609049506855984
sg7
F0.0
sg8
F0.0
sg9
F0.0
sg10
F0.0
sg11
F-5.0
sg12
F0.0
sg13
F0.0
sg14
F0.0
sg15
F-5.6960820747937255
sg16
F0.0
sg17
F0.0
sg18
F5.47307947466497
sg19
F0.0
sg20
I3
sg21
I9
sg22
F0.0
sg23
F-4.80787474250675
sg24
I-9
sg25
I-3
sg26
F0.24776269990408092
sg27
F5.0
sg28
F0.0
sa(dp33
g4
F0.0
sg5
F0.0
sg6
F6.609049506855984
sg7
F0.0
sg8
F0.0
sg9
F0.0
sg10
F0.0
sg11
F-5.0
sg12
F0.0
sg13
F0.0
sg14
F0.0
sg15
F-5.6960820747937255
sg16
F0.0
sg17
F0.0
sg18
F5.47307947466497
sg19
F0.0
sg20
I3
sg21
I12
sg22
F0.0
sg23
F-4.80787474250675
sg24
I-12
sg25
I-3
sg26
F0.24776269990408092
sg27
F5.0
sg28
F0.0
sa(dp34
g4
F0.0
sg5
F0.0
sg6
F6.609049506855984
sg7
F0.0
sg8
F0.0
sg9
F0.0
sg10
F0.0
sg11
F-5.0
sg12
F0.0
sg13
F0.0
sg14
F0.0
sg15
F-5.6960820747937255
sg16
F0.0
sg17
F0.0
sg18
F5.47307947466497
sg19
F0.0
sg20
I3
sg21
I15
sg22
F0.0
sg23
F-4.80787474250675
sg24
I-15
sg25
I-3
sg26
F0.24776269990408092
sg27
F5.0
sg28
F0.0
sa(dp35
g4
F0.0
sg5
F0.0
sg6
F6.609049506855984
sg7
F0.0
sg8
F0.0
sg9
F0.0
sg10
F0.0
sg11
I-6
sg12
F0.0
sg13
F0.0
sg14
F0.0
sg15
F-5.6960820747937255
sg16
F0.0
sg17
F0.0
sg18
F5.47307947466497
sg19
F0.0
sg20
I6
sg21
I6
sg22
F0.0
sg23
F-4.80787474250675
sg24
I-6
sg25
I-6
sg26
F0.24776269990408092
sg27
I6
sg28
F0.0
sa(dp36
g4
F0.0
sg5
F0.0
sg6
F6.609049506855984
sg7
F0.0
sg8
F0.0
sg9
F0.0
sg10
F0.0
sg11
I-6
sg12
F0.0
sg13
F0.0
sg14
F0.0
sg15
F-5.6960820747937255
sg16
F0.0
sg17
F0.0
sg18
F5.47307947466497
sg19
F0.0
sg20
I6
sg21
I9
sg22
F0.0
sg23
F-4.80787474250675
sg24
I-9
sg25
I-6
sg26
F0.24776269990408092
sg27
I6
sg28
F0.0
sa(dp37
g4
F0.0
sg5
F0.0
sg6
F6.609049506855984
sg7
F0.0
sg8
F0.0
sg9
F0.0
sg10
F0.0
sg11
I-6
sg12
F0.0
sg13
F0.0
sg14
F0.0
sg15
F-5.6960820747937255
sg16
F0.0
sg17
F0.0
sg18
F5.47307947466497
sg19
F0.0
sg20
I6
sg21
I12
sg22
F0.0
sg23
F-4.80787474250675
sg24
I-12
sg25
I-6
sg26
F0.24776269990408092
sg27
I6
sg28
F0.0
sa(dp38
g4
F0.0
sg5
F0.0
sg6
F6.609049506855984
sg7
F0.0
sg8
F0.0
sg9
F0.0
sg10
F0.0
sg11
I-6
sg12
F0.0
sg13
F0.0
sg14
F0.0
sg15
F-5.6960820747937255
sg16
F0.0
sg17
F0.0
sg18
F5.47307947466497
sg19
F0.0
sg20
I6
sg21
I15
sg22
F0.0
sg23
F-4.80787474250675
sg24
I-15
sg25
I-6
sg26
F0.24776269990408092
sg27
I6
sg28
F0.0
sa(dp39
g4
F0.0
sg5
F0.0
sg6
F6.609049506855984
sg7
F0.0
sg8
F0.0
sg9
F0.0
sg10
F0.0
sg11
I-9
sg12
F0.0
sg13
F0.0
sg14
F0.0
sg15
F-5.6960820747937255
sg16
F0.0
sg17
F0.0
sg18
F5.47307947466497
sg19
F0.0
sg20
I9
sg21
I6
sg22
F0.0
sg23
F-4.80787474250675
sg24
I-6
sg25
I-9
sg26
F0.24776269990408092
sg27
I9
sg28
F0.0
sa(dp40
g4
F0.0
sg5
F0.0
sg6
F6.609049506855984
sg7
F0.0
sg8
F0.0
sg9
F0.0
sg10
F0.0
sg11
I-9
sg12
F0.0
sg13
F0.0
sg14
F0.0
sg15
F-5.6960820747937255
sg16
F0.0
sg17
F0.0
sg18
F5.47307947466497
sg19
F0.0
sg20
I9
sg21
I9
sg22
F0.0
sg23
F-4.80787474250675
sg24
I-9
sg25
I-9
sg26
F0.24776269990408092
sg27
I9
sg28
F0.0
sa(dp41
g4
F0.0
sg5
F0.0
sg6
F6.609049506855984
sg7
F0.0
sg8
F0.0
sg9
F0.0
sg10
F0.0
sg11
I-9
sg12
F0.0
sg13
F0.0
sg14
F0.0
sg15
F-5.6960820747937255
sg16
F0.0
sg17
F0.0
sg18
F5.47307947466497
sg19
F0.0
sg20
I9
sg21
I12
sg22
F0.0
sg23
F-4.80787474250675
sg24
I-12
sg25
I-9
sg26
F0.24776269990408092
sg27
I9
sg28
F0.0
sa(dp42
g4
F0.0
sg5
F0.0
sg6
F6.609049506855984
sg7
F0.0
sg8
F0.0
sg9
F0.0
sg10
F0.0
sg11
I-9
sg12
F0.0
sg13
F0.0
sg14
F0.0
sg15
F-5.6960820747937255
sg16
F0.0
sg17
F0.0
sg18
F5.47307947466497
sg19
F0.0
sg20
I9
sg21
I15
sg22
F0.0
sg23
F-4.80787474250675
sg24
I-15
sg25
I-9
sg26
F0.24776269990408092
sg27
I9
sg28
F0.0
sa(dp43
g4
F0.0
sg5
F0.0
sg6
F6.609049506855984
sg7
F0.0
sg8
F0.0
sg9
F0.0
sg10
F0.0
sg11
I-9
sg12
F0.0
sg13
F0.0
sg14
F0.0
sg15
F-5.6960820747937255
sg16
F0.0
sg17
F0.0
sg18
F5.47307947466497
sg19
F0.0
sg20
I9
sg21
I18
sg22
F0.0
sg23
F-4.80787474250675
sg24
I-18
sg25
I-9
sg26
F0.24776269990408092
sg27
I9
sg28
F0.0
sa(dp44
g4
F0.0
sg5
F0.0
sg6
F6.609049506855984
sg7
F0.0
sg8
F0.0
sg9
F0.0
sg10
F0.0
sg11
I-12
sg12
F0.0
sg13
F0.0
sg14
F0.0
sg15
F-5.6960820747937255
sg16
F0.0
sg17
F0.0
sg18
F5.47307947466497
sg19
F0.0
sg20
I12
sg21
I6
sg22
F0.0
sg23
F-4.80787474250675
sg24
I-6
sg25
I-12
sg26
F0.24776269990408092
sg27
I12
sg28
F0.0
sa(dp45
g4
F0.0
sg5
F0.0
sg6
F6.609049506855984
sg7
F0.0
sg8
F0.0
sg9
F0.0
sg10
F0.0
sg11
I-12
sg12
F0.0
sg13
F0.0
sg14
F0.0
sg15
F-5.6960820747937255
sg16
F0.0
sg17
F0.0
sg18
F5.47307947466497
sg19
F0.0
sg20
I12
sg21
I9
sg22
F0.0
sg23
F-4.80787474250675
sg24
I-9
sg25
I-12
sg26
F0.24776269990408092
sg27
I12
sg28
F0.0
sa(dp46
g4
F0.0
sg5
F0.0
sg6
F6.609049506855984
sg7
F0.0
sg8
F0.0
sg9
F0.0
sg10
F0.0
sg11
I-12
sg12
F0.0
sg13
F0.0
sg14
F0.0
sg15
F-5.6960820747937255
sg16
F0.0
sg17
F0.0
sg18
F5.47307947466497
sg19
F0.0
sg20
I12
sg21
I12
sg22
F0.0
sg23
F-4.80787474250675
sg24
I-12
sg25
I-12
sg26
F0.24776269990408092
sg27
I12
sg28
F0.0
sa(dp47
g4
F0.0
sg5
F0.0
sg6
F6.609049506855984
sg7
F0.0
sg8
F0.0
sg9
F0.0
sg10
F0.0
sg11
I-12
sg12
F0.0
sg13
F0.0
sg14
F0.0
sg15
F-5.6960820747937255
sg16
F0.0
sg17
F0.0
sg18
F5.47307947466497
sg19
F0.0
sg20
I12
sg21
I15
sg22
F0.0
sg23
F-4.80787474250675
sg24
I-15
sg25
I-12
sg26
F0.24776269990408092
sg27
I12
sg28
F0.0
sa(dp48
g4
F0.0
sg5
F0.0
sg6
F6.609049506855984
sg7
F0.0
sg8
F0.0
sg9
F0.0
sg10
F0.0
sg11
I-12
sg12
F0.0
sg13
F0.0
sg14
F0.0
sg15
F-5.6960820747937255
sg16
F0.0
sg17
F0.0
sg18
F5.47307947466497
sg19
F0.0
sg20
I12
sg21
I18
sg22
F0.0
sg23
F-4.80787474250675
sg24
I-18
sg25
I-12
sg26
F0.24776269990408092
sg27
I12
sg28
F0.0
sa(dp49
g4
F0.0
sg5
F0.0
sg6
F6.609049506855984
sg7
F0.0
sg8
F0.0
sg9
F0.0
sg10
F0.0
sg11
I-15
sg12
F0.0
sg13
F0.0
sg14
F0.0
sg15
F-5.6960820747937255
sg16
F0.0
sg17
F0.0
sg18
F5.47307947466497
sg19
F0.0
sg20
I15
sg21
I6
sg22
F0.0
sg23
F-4.80787474250675
sg24
I-6
sg25
I-15
sg26
F0.24776269990408092
sg27
I15
sg28
F0.0
sa(dp50
g4
F0.0
sg5
F0.0
sg6
F6.609049506855984
sg7
F0.0
sg8
F0.0
sg9
F0.0
sg10
F0.0
sg11
I-15
sg12
F0.0
sg13
F0.0
sg14
F0.0
sg15
F-5.6960820747937255
sg16
F0.0
sg17
F0.0
sg18
F5.47307947466497
sg19
F0.0
sg20
I15
sg21
I9
sg22
F0.0
sg23
F-4.80787474250675
sg24
I-9
sg25
I-15
sg26
F0.24776269990408092
sg27
I15
sg28
F0.0
sa(dp51
g4
F0.0
sg5
F0.0
sg6
F6.609049506855984
sg7
F0.0
sg8
F0.0
sg9
F0.0
sg10
F0.0
sg11
I-15
sg12
F0.0
sg13
F0.0
sg14
F0.0
sg15
F-5.6960820747937255
sg16
F0.0
sg17
F0.0
sg18
F5.47307947466497
sg19
F0.0
sg20
I15
sg21
I12
sg22
F0.0
sg23
F-4.80787474250675
sg24
I-12
sg25
I-15
sg26
F0.24776269990408092
sg27
I15
sg28
F0.0
sa(dp52
g4
F0.0
sg5
F0.0
sg6
F6.609049506855984
sg7
F0.0
sg8
F0.0
sg9
F0.0
sg10
F0.0
sg11
I-15
sg12
F0.0
sg13
F0.0
sg14
F0.0
sg15
F-5.6960820747937255
sg16
F0.0
sg17
F0.0
sg18
F5.47307947466497
sg19
F0.0
sg20
I15
sg21
I15
sg22
F0.0
sg23
F-4.80787474250675
sg24
I-15
sg25
I-15
sg26
F0.24776269990408092
sg27
I15
sg28
F0.0
sa(dp53
g4
F0.0
sg5
F0.0
sg6
F6.609049506855984
sg7
F0.0
sg8
F0.0
sg9
F0.0
sg10
F0.0
sg11
I-15
sg12
F0.0
sg13
F0.0
sg14
F0.0
sg15
F-5.6960820747937255
sg16
F0.0
sg17
F0.0
sg18
F5.47307947466497
sg19
F0.0
sg20
I15
sg21
I18
sg22
F0.0
sg23
F-4.80787474250675
sg24
I-18
sg25
I-15
sg26
F0.24776269990408092
sg27
I15
sg28
F0.0
sa(dp54
g4
F0.0
sg5
F0.0
sg6
F6.609049506855984
sg7
F0.0
sg8
F0.0
sg9
F0.0
sg10
F0.0
sg11
I-18
sg12
F0.0
sg13
F0.0
sg14
F0.0
sg15
F-5.6960820747937255
sg16
F0.0
sg17
F0.0
sg18
F5.47307947466497
sg19
F0.0
sg20
I18
sg21
I6
sg22
F0.0
sg23
F-4.80787474250675
sg24
I-6
sg25
I-18
sg26
F0.24776269990408092
sg27
I18
sg28
F0.0
sa(dp55
g4
F0.0
sg5
F0.0
sg6
F6.609049506855984
sg7
F0.0
sg8
F0.0
sg9
F0.0
sg10
F0.0
sg11
I-18
sg12
F0.0
sg13
F0.0
sg14
F0.0
sg15
F-5.6960820747937255
sg16
F0.0
sg17
F0.0
sg18
F5.47307947466497
sg19
F0.0
sg20
I18
sg21
I9
sg22
F0.0
sg23
F-4.80787474250675
sg24
I-9
sg25
I-18
sg26
F0.24776269990408092
sg27
I18
sg28
F0.0
sa(dp56
g4
F0.0
sg5
F0.0
sg6
F6.609049506855984
sg7
F0.0
sg8
F0.0
sg9
F0.0
sg10
F0.0
sg11
I-18
sg12
F0.0
sg13
F0.0
sg14
F0.0
sg15
F-5.6960820747937255
sg16
F0.0
sg17
F0.0
sg18
F5.47307947466497
sg19
F0.0
sg20
I18
sg21
I12
sg22
F0.0
sg23
F-4.80787474250675
sg24
I-12
sg25
I-18
sg26
F0.24776269990408092
sg27
I18
sg28
F0.0
sa(dp57
g4
F0.0
sg5
F0.0
sg6
F6.609049506855984
sg7
F0.0
sg8
F0.0
sg9
F0.0
sg10
F0.0
sg11
I-18
sg12
F0.0
sg13
F0.0
sg14
F0.0
sg15
F-5.6960820747937255
sg16
F0.0
sg17
F0.0
sg18
F5.47307947466497
sg19
F0.0
sg20
I18
sg21
I15
sg22
F0.0
sg23
F-4.80787474250675
sg24
I-15
sg25
I-18
sg26
F0.24776269990408092
sg27
I18
sg28
F0.0
sa(dp58
g4
F0.0
sg5
F0.0
sg6
F6.609049506855984
sg7
F0.0
sg8
F0.0
sg9
F0.0
sg10
F0.0
sg11
I-18
sg12
F0.0
sg13
F0.0
sg14
F0.0
sg15
F-5.6960820747937255
sg16
F0.0
sg17
F0.0
sg18
F5.47307947466497
sg19
F0.0
sg20
I18
sg21
I18
sg22
F0.0
sg23
F-4.80787474250675
sg24
I-18
sg25
I-18
sg26
F0.24776269990408092
sg27
I18
sg28
F0.0
sa(dp59
g4
F0.0
sg5
F0.0
sg6
F6.609049506855984
sg7
F0.0
sg8
F0.0
sg9
F0.0
sg10
F0.0
sg11
I-21
sg12
F0.0
sg13
F0.0
sg14
F0.0
sg15
F-5.6960820747937255
sg16
F0.0
sg17
F0.0
sg18
F5.47307947466497
sg19
F0.0
sg20
I21
sg21
I6
sg22
F0.0
sg23
F-4.80787474250675
sg24
I-6
sg25
I-21
sg26
F0.24776269990408092
sg27
I21
sg28
F0.0
sa(dp60
g4
F0.0
sg5
F0.0
sg6
F6.609049506855984
sg7
F0.0
sg8
F0.0
sg9
F0.0
sg10
F0.0
sg11
I-21
sg12
F0.0
sg13
F0.0
sg14
F0.0
sg15
F-5.6960820747937255
sg16
F0.0
sg17
F0.0
sg18
F5.47307947466497
sg19
F0.0
sg20
I21
sg21
I9
sg22
F0.0
sg23
F-4.80787474250675
sg24
I-9
sg25
I-21
sg26
F0.24776269990408092
sg27
I21
sg28
F0.0
sa(dp61
g4
F0.0
sg5
F0.0
sg6
F6.609049506855984
sg7
F0.0
sg8
F0.0
sg9
F0.0
sg10
F0.0
sg11
I-21
sg12
F0.0
sg13
F0.0
sg14
F0.0
sg15
F-5.6960820747937255
sg16
F0.0
sg17
F0.0
sg18
F5.47307947466497
sg19
F0.0
sg20
I21
sg21
I12
sg22
F0.0
sg23
F-4.80787474250675
sg24
I-12
sg25
I-21
sg26
F0.24776269990408092
sg27
I21
sg28
F0.0
sa(dp62
g4
F0.0
sg5
F0.0
sg6
F6.609049506855984
sg7
F0.0
sg8
F0.0
sg9
F0.0
sg10
F0.0
sg11
I-21
sg12
F0.0
sg13
F0.0
sg14
F0.0
sg15
F-5.6960820747937255
sg16
F0.0
sg17
F0.0
sg18
F5.47307947466497
sg19
F0.0
sg20
I21
sg21
I15
sg22
F0.0
sg23
F-4.80787474250675
sg24
I-15
sg25
I-21
sg26
F0.24776269990408092
sg27
I21
sg28
F0.0
sa(dp63
g4
F0.0
sg5
F0.0
sg6
F6.609049506855984
sg7
F0.0
sg8
F0.0
sg9
F0.0
sg10
F0.0
sg11
I-21
sg12
F0.0
sg13
F0.0
sg14
F0.0
sg15
F-5.6960820747937255
sg16
F0.0
sg17
F0.0
sg18
F5.47307947466497
sg19
F0.0
sg20
I21
sg21
I18
sg22
F0.0
sg23
F-4.80787474250675
sg24
I-18
sg25
I-21
sg26
F0.24776269990408092
sg27
I21
sg28
F0.0
sa(dp64
g4
F0.0
sg5
F0.0
sg6
F6.609049506855984
sg7
F0.0
sg8
F0.0
sg9
F0.0
sg10
F0.0
sg11
I-24
sg12
F0.0
sg13
F0.0
sg14
F0.0
sg15
F-5.6960820747937255
sg16
F0.0
sg17
F0.0
sg18
F5.47307947466497
sg19
F0.0
sg20
I24
sg21
I6
sg22
F0.0
sg23
F-4.80787474250675
sg24
I-6
sg25
I-24
sg26
F0.24776269990408092
sg27
I24
sg28
F0.0
sa(dp65
g4
F0.0
sg5
F0.0
sg6
F6.609049506855984
sg7
F0.0
sg8
F0.0
sg9
F0.0
sg10
F0.0
sg11
I-24
sg12
F0.0
sg13
F0.0
sg14
F0.0
sg15
F-5.6960820747937255
sg16
F0.0
sg17
F0.0
sg18
F5.47307947466497
sg19
F0.0
sg20
I24
sg21
I9
sg22
F0.0
sg23
F-4.80787474250675
sg24
I-9
sg25
I-24
sg26
F0.24776269990408092
sg27
I24
sg28
F0.0
sa(dp66
g4
F0.0
sg5
F0.0
sg6
F6.609049506855984
sg7
F0.0
sg8
F0.0
sg9
F0.0
sg10
F0.0
sg11
I-24
sg12
F0.0
sg13
F0.0
sg14
F0.0
sg15
F-5.6960820747937255
sg16
F0.0
sg17
F0.0
sg18
F5.47307947466497
sg19
F0.0
sg20
I24
sg21
I12
sg22
F0.0
sg23
F-4.80787474250675
sg24
I-12
sg25
I-24
sg26
F0.24776269990408092
sg27
I24
sg28
F0.0
sa(dp67
g4
F0.0
sg5
F0.0
sg6
F6.609049506855984
sg7
F0.0
sg8
F0.0
sg9
F0.0
sg10
F0.0
sg11
I-24
sg12
F0.0
sg13
F0.0
sg14
F0.0
sg15
F-5.6960820747937255
sg16
F0.0
sg17
F0.0
sg18
F5.47307947466497
sg19
F0.0
sg20
I24
sg21
I15
sg22
F0.0
sg23
F-4.80787474250675
sg24
I-15
sg25
I-24
sg26
F0.24776269990408092
sg27
I24
sg28
F0.0
sa(dp68
g4
F0.0
sg5
F0.0
sg6
F6.609049506855984
sg7
F0.0
sg8
F0.0
sg9
F0.0
sg10
F0.0
sg11
I-24
sg12
F0.0
sg13
F0.0
sg14
F0.0
sg15
F-5.6960820747937255
sg16
F0.0
sg17
F0.0
sg18
F5.47307947466497
sg19
F0.0
sg20
I24
sg21
I18
sg22
F0.0
sg23
F-4.80787474250675
sg24
I-18
sg25
I-24
sg26
F0.24776269990408092
sg27
I24
sg28
F0.0
sasS'init'
p69
(lp70
(dp71
Vl_elbow_y
p72
F0.0
sVr_elbow_y
p73
F0.0
sVr_knee_y
p74
F0.0
sVhead_y
p75
F0.0
sVhead_z
p76
F0.0
sVr_arm_z
p77
F0.0
sVr_ankle_y
p78
F4.0
sVr_shoulder_x
p79
F-5.0
sVr_shoulder_y
p80
F0.0
sVr_hip_z
p81
F0.0
sVr_hip_x
p82
F0.0
sVr_hip_y
p83
F-4.0
sVl_arm_z
p84
F0.0
sVl_hip_x
p85
F0.0
sVl_hip_y
p86
F4.0
sVl_hip_z
p87
F0.0
sVabs_x
p88
I0
sVabs_y
p89
I0
sVabs_z
p90
F0.0
sVl_ankle_y
p91
F-4.0
sVbust_y
p92
I0
sVbust_x
p93
I0
sVl_knee_y
p94
F0.0
sVl_shoulder_x
p95
F5.0
sVl_shoulder_y
p96
F0.0
sa(dp97
g72
F0.0
sg73
F0.0
sg74
F0.0
sg75
F0.0
sg76
F0.0
sg77
F0.0
sg78
F4.0
sg79
F-5.0
sg80
F0.0
sg81
F0.0
sg82
F0.0
sg83
F-4.0
sg84
F0.0
sg85
F0.0
sg86
F4.0
sg87
F0.0
sg88
I0
sg89
I1
sg90
F0.0
sg91
F-4.0
sg92
I-1
sg93
I0
sg94
F0.0
sg95
F5.0
sg96
F0.0
sa(dp98
g72
F0.0
sg73
F0.0
sg74
F0.0
sg75
F0.0
sg76
F0.0
sg77
F0.0
sg78
F4.0
sg79
F-5.0
sg80
F0.0
sg81
F0.0
sg82
F0.0
sg83
F-4.0
sg84
F0.0
sg85
F0.0
sg86
F4.0
sg87
F0.0
sg88
I0
sg89
I2
sg90
F0.0
sg91
F-4.0
sg92
I-2
sg93
I0
sg94
F0.0
sg95
F5.0
sg96
F0.0
sa(dp99
g72
F0.0
sg73
F0.0
sg74
F0.0
sg75
F0.0
sg76
F0.0
sg77
F0.0
sg78
F4.0
sg79
F-5.0
sg80
F0.0
sg81
F0.0
sg82
F0.0
sg83
F-4.0
sg84
F0.0
sg85
F0.0
sg86
F4.0
sg87
F0.0
sg88
I0
sg89
I3
sg90
F0.0
sg91
F-4.0
sg92
I-3
sg93
I0
sg94
F0.0
sg95
F5.0
sg96
F0.0
sa(dp100
g72
F0.0
sg73
F0.0
sg74
F0.0
sg75
F0.0
sg76
F0.0
sg77
F0.0
sg78
F4.0
sg79
F-5.0
sg80
F0.0
sg81
F0.0
sg82
F0.0
sg83
F-4.0
sg84
F0.0
sg85
F0.0
sg86
F4.0
sg87
F0.0
sg88
I0
sg89
I4
sg90
F0.0
sg91
F-4.0
sg92
I-4
sg93
I0
sg94
F0.0
sg95
F5.0
sg96
F0.0
sa(dp101
g72
F0.0
sg73
F0.0
sg74
F0.0
sg75
F0.0
sg76
F0.0
sg77
F0.0
sg78
F4.0
sg79
F-5.0
sg80
F0.0
sg81
F0.0
sg82
F0.0
sg83
F-4.0
sg84
F0.0
sg85
F0.0
sg86
F4.0
sg87
F0.0
sg88
I0
sg89
I5
sg90
F0.0
sg91
F-4.0
sg92
I-5
sg93
I0
sg94
F0.0
sg95
F5.0
sg96
F0.0
sa(dp102
g72
F0.0
sg73
F0.0
sg74
F0.0
sg75
F0.0
sg76
F0.0
sg77
F0.0
sg78
F4.0
sg79
F-5.0
sg80
F0.0
sg81
F0.0
sg82
F0.0
sg83
F-4.0
sg84
F0.0
sg85
F0.0
sg86
F4.0
sg87
F0.0
sg88
I0
sg89
I6
sg90
F0.0
sg91
F-4.0
sg92
I-6
sg93
I0
sg94
F0.0
sg95
F5.0
sg96
F0.0
sa(dp103
g72
F0.0
sg73
F0.0
sg74
F0.0
sg75
F0.0
sg76
F0.0
sg77
F0.0
sg78
F4.0
sg79
F-5.0
sg80
F0.0
sg81
F0.0
sg82
F0.0
sg83
F-4.0
sg84
F0.0
sg85
F0.0
sg86
F4.0
sg87
F0.0
sg88
I0
sg89
I7
sg90
F0.0
sg91
F-4.0
sg92
I-7
sg93
I0
sg94
F0.0
sg95
F5.0
sg96
F0.0
sa(dp104
g72
F0.0
sg73
F0.0
sg74
F0.0
sg75
F0.0
sg76
F0.0
sg77
F0.0
sg78
F4.0
sg79
F-5.0
sg80
F0.0
sg81
F0.0
sg82
F0.0
sg83
F-4.0
sg84
F0.0
sg85
F0.0
sg86
F4.0
sg87
F0.0
sg88
I0
sg89
I8
sg90
F0.0
sg91
F-4.0
sg92
I-8
sg93
I0
sg94
F0.0
sg95
F5.0
sg96
F0.0
sa(dp105
g72
F0.0
sg73
F0.0
sg74
F0.0
sg75
F0.0
sg76
F0.0
sg77
F0.0
sg78
F4.0
sg79
F-5.0
sg80
F0.0
sg81
F0.0
sg82
F0.0
sg83
F-4.0
sg84
F0.0
sg85
F0.0
sg86
F4.0
sg87
F0.0
sg88
I0
sg89
I9
sg90
F0.0
sg91
F-4.0
sg92
I-9
sg93
I0
sg94
F0.0
sg95
F5.0
sg96
F0.0
sa(dp106
g72
F0.0
sg73
F0.0
sg74
F0.0
sg75
F0.0
sg76
F0.0
sg77
F0.0
sg78
F4.0
sg79
F-5.0
sg80
F0.0
sg81
F0.0
sg82
F0.0
sg83
F-4.0
sg84
F0.0
sg85
F0.0
sg86
F4.0
sg87
F0.0
sg88
I0
sg89
I10
sg90
F0.0
sg91
F-4.0
sg92
I-10
sg93
I0
sg94
F0.0
sg95
F5.0
sg96
F0.0
sa(dp107
g72
F0.0
sg73
F0.0
sg74
F0.0
sg75
F0.0
sg76
F0.0
sg77
F0.0
sg78
F4.0
sg79
F-5.0
sg80
F0.0
sg81
F0.0
sg82
F0.0
sg83
F-4.0
sg84
F0.0
sg85
F0.0
sg86
F4.0
sg87
F0.0
sg88
I0
sg89
I11
sg90
F0.0
sg91
F-4.0
sg92
I-11
sg93
I0
sg94
F0.0
sg95
F5.0
sg96
F0.0
sa(dp108
g72
F0.0
sg73
F0.0
sg74
F0.0
sg75
F0.0
sg76
F0.0
sg77
F0.0
sg78
F4.0
sg79
F-5.0
sg80
F0.0
sg81
F0.0
sg82
F0.0
sg83
F-4.0
sg84
F0.0
sg85
F0.0
sg86
F4.0
sg87
F0.0
sg88
I0
sg89
I12
sg90
F0.0
sg91
F-4.0
sg92
I-12
sg93
I0
sg94
F0.0
sg95
F5.0
sg96
F0.0
sa(dp109
g72
F0.0
sg73
F0.0
sg74
F0.0
sg75
F0.0
sg76
F0.0
sg77
F0.0
sg78
F4.0
sg79
F-5.0
sg80
F0.0
sg81
F0.0
sg82
F0.0
sg83
F-4.0
sg84
F0.0
sg85
F0.0
sg86
F4.0
sg87
F0.0
sg88
I0
sg89
I13
sg90
F0.0
sg91
F-4.0
sg92
I-13
sg93
I0
sg94
F0.0
sg95
F5.0
sg96
F0.0
sa(dp110
g72
F0.0
sg73
F0.0
sg74
F0.0
sg75
F0.0
sg76
F0.0
sg77
F0.0
sg78
F4.0
sg79
F-5.0
sg80
F0.0
sg81
F0.0
sg82
F0.0
sg83
F-4.0
sg84
F0.0
sg85
F0.0
sg86
F4.0
sg87
F0.0
sg88
I0
sg89
I14
sg90
F0.0
sg91
F-4.0
sg92
I-14
sg93
I0
sg94
F0.0
sg95
F5.0
sg96
F0.0
sa(dp111
g72
F0.0
sg73
F0.0
sg74
F0.0
sg75
F0.0
sg76
F0.0
sg77
F0.0
sg78
F4.0
sg79
F-5.0
sg80
F0.0
sg81
F0.0
sg82
F0.0
sg83
F-4.0
sg84
F0.0
sg85
F0.0
sg86
F4.0
sg87
F0.0
sg88
I0
sg89
I15
sg90
F0.0
sg91
F-4.0
sg92
I-15
sg93
I0
sg94
F0.0
sg95
F5.0
sg96
F0.0
sasS'lift'
p112
(lp113
(dp114
Vl_elbow_y
p115
F0.0
sVr_elbow_y
p116
F0.0
sVr_knee_y
p117
F0.0
sVhead_y
p118
F0.0
sVhead_z
p119
F0.0
sVr_arm_z
p120
F0.0
sVr_ankle_y
p121
F0.0
sVr_shoulder_x
p122
I-18
sVr_shoulder_y
p123
F0.0
sVr_hip_z
p124
F0.0
sVr_hip_x
p125
F0.0
sVr_hip_y
p126
F0.0
sVl_arm_z
p127
F0.0
sVl_hip_x
p128
F0.0
sVl_hip_y
p129
F0.0
sVl_hip_z
p130
F0.0
sVabs_x
p131
I18
sVabs_y
p132
I-2
sVabs_z
p133
F0.0
sVl_ankle_y
p134
F-11.80332796345995
sVbust_y
p135
I2
sVbust_x
p136
I-18
sVl_knee_y
p137
F15.4813505202178
sVl_shoulder_x
p138
I18
sVl_shoulder_y
p139
F0.0
sa(dp140
g115
F0.0
sg116
F0.0
sg117
F0.0
sg118
F0.0
sg119
F0.0
sg120
F0.0
sg121
F0.0
sg122
I-18
sg123
F0.0
sg124
F0.0
sg125
F0.0
sg126
F0.0
sg127
F0.0
sg128
F0.0
sg129
F0.0
sg130
F0.0
sg131
I18
sg132
I0
sg133
F0.0
sg134
F-11.80332796345995
sg135
I0
sg136
I-18
sg137
F15.4813505202178
sg138
I18
sg139
F0.0
sa(dp141
g115
F0.0
sg116
F0.0
sg117
F0.0
sg118
F0.0
sg119
F0.0
sg120
F0.0
sg121
F0.0
sg122
I-18
sg123
F0.0
sg124
F0.0
sg125
F0.0
sg126
F0.0
sg127
F0.0
sg128
F0.0
sg129
F0.0
sg130
F0.0
sg131
I18
sg132
I2
sg133
F0.0
sg134
F-11.80332796345995
sg135
I-2
sg136
I-18
sg137
F15.4813505202178
sg138
I18
sg139
F0.0
sa(dp142
g115
F0.0
sg116
F0.0
sg117
F0.0
sg118
F0.0
sg119
F0.0
sg120
F0.0
sg121
F0.0
sg122
I-18
sg123
F0.0
sg124
F0.0
sg125
F0.0
sg126
F0.0
sg127
F0.0
sg128
F0.0
sg129
F0.0
sg130
F0.0
sg131
I18
sg132
I4
sg133
F0.0
sg134
F-11.80332796345995
sg135
I-4
sg136
I-18
sg137
F15.4813505202178
sg138
I18
sg139
F0.0
sa(dp143
g115
F0.0
sg116
F0.0
sg117
F0.0
sg118
F0.0
sg119
F0.0
sg120
F0.0
sg121
F0.0
sg122
I-18
sg123
F0.0
sg124
F0.0
sg125
F0.0
sg126
F0.0
sg127
F0.0
sg128
F0.0
sg129
F0.0
sg130
F0.0
sg131
I18
sg132
I6
sg133
F0.0
sg134
F-11.80332796345995
sg135
I-6
sg136
I-18
sg137
F15.4813505202178
sg138
I18
sg139
F0.0
sa(dp144
g115
F0.0
sg116
F0.0
sg117
F0.0
sg118
F0.0
sg119
F0.0
sg120
F0.0
sg121
F0.0
sg122
I-20
sg123
F0.0
sg124
F0.0
sg125
F0.0
sg126
F0.0
sg127
F0.0
sg128
F0.0
sg129
F0.0
sg130
F0.0
sg131
I20
sg132
I-2
sg133
F0.0
sg134
F-11.80332796345995
sg135
I2
sg136
I-20
sg137
F15.4813505202178
sg138
I20
sg139
F0.0
sa(dp145
g115
F0.0
sg116
F0.0
sg117
F0.0
sg118
F0.0
sg119
F0.0
sg120
F0.0
sg121
F0.0
sg122
I-20
sg123
F0.0
sg124
F0.0
sg125
F0.0
sg126
F0.0
sg127
F0.0
sg128
F0.0
sg129
F0.0
sg130
F0.0
sg131
I20
sg132
I0
sg133
F0.0
sg134
F-11.80332796345995
sg135
I0
sg136
I-20
sg137
F15.4813505202178
sg138
I20
sg139
F0.0
sa(dp146
g115
F0.0
sg116
F0.0
sg117
F0.0
sg118
F0.0
sg119
F0.0
sg120
F0.0
sg121
F0.0
sg122
I-20
sg123
F0.0
sg124
F0.0
sg125
F0.0
sg126
F0.0
sg127
F0.0
sg128
F0.0
sg129
F0.0
sg130
F0.0
sg131
I20
sg132
I2
sg133
F0.0
sg134
F-11.80332796345995
sg135
I-2
sg136
I-20
sg137
F15.4813505202178
sg138
I20
sg139
F0.0
sa(dp147
g115
F0.0
sg116
F0.0
sg117
F0.0
sg118
F0.0
sg119
F0.0
sg120
F0.0
sg121
F0.0
sg122
I-20
sg123
F0.0
sg124
F0.0
sg125
F0.0
sg126
F0.0
sg127
F0.0
sg128
F0.0
sg129
F0.0
sg130
F0.0
sg131
I20
sg132
I4
sg133
F0.0
sg134
F-11.80332796345995
sg135
I-4
sg136
I-20
sg137
F15.4813505202178
sg138
I20
sg139
F0.0
sa(dp148
g115
F0.0
sg116
F0.0
sg117
F0.0
sg118
F0.0
sg119
F0.0
sg120
F0.0
sg121
F0.0
sg122
I-22
sg123
F0.0
sg124
F0.0
sg125
F0.0
sg126
F0.0
sg127
F0.0
sg128
F0.0
sg129
F0.0
sg130
F0.0
sg131
I22
sg132
I-2
sg133
F0.0
sg134
F-11.80332796345995
sg135
I2
sg136
I-22
sg137
F15.4813505202178
sg138
I22
sg139
F0.0
sa(dp149
g115
F0.0
sg116
F0.0
sg117
F0.0
sg118
F0.0
sg119
F0.0
sg120
F0.0
sg121
F0.0
sg122
I-22
sg123
F0.0
sg124
F0.0
sg125
F0.0
sg126
F0.0
sg127
F0.0
sg128
F0.0
sg129
F0.0
sg130
F0.0
sg131
I22
sg132
I0
sg133
F0.0
sg134
F-11.80332796345995
sg135
I0
sg136
I-22
sg137
F15.4813505202178
sg138
I22
sg139
F0.0
sa(dp150
g115
F0.0
sg116
F0.0
sg117
F0.0
sg118
F0.0
sg119
F0.0
sg120
F0.0
sg121
F0.0
sg122
I-22
sg123
F0.0
sg124
F0.0
sg125
F0.0
sg126
F0.0
sg127
F0.0
sg128
F0.0
sg129
F0.0
sg130
F0.0
sg131
I22
sg132
I2
sg133
F0.0
sg134
F-11.80332796345995
sg135
I-2
sg136
I-22
sg137
F15.4813505202178
sg138
I22
sg139
F0.0
sa(dp151
g115
F0.0
sg116
F0.0
sg117
F0.0
sg118
F0.0
sg119
F0.0
sg120
F0.0
sg121
F0.0
sg122
I-22
sg123
F0.0
sg124
F0.0
sg125
F0.0
sg126
F0.0
sg127
F0.0
sg128
F0.0
sg129
F0.0
sg130
F0.0
sg131
I22
sg132
I4
sg133
F0.0
sg134
F-11.80332796345995
sg135
I-4
sg136
I-22
sg137
F15.4813505202178
sg138
I22
sg139
F0.0
sa(dp152
g115
F0.0
sg116
F0.0
sg117
F0.0
sg118
F0.0
sg119
F0.0
sg120
F0.0
sg121
F0.0
sg122
I-22
sg123
F0.0
sg124
F0.0
sg125
F0.0
sg126
F0.0
sg127
F0.0
sg128
F0.0
sg129
F0.0
sg130
F0.0
sg131
I22
sg132
I6
sg133
F0.0
sg134
F-11.80332796345995
sg135
I-6
sg136
I-22
sg137
F15.4813505202178
sg138
I22
sg139
F0.0
sa(dp153
g115
F0.0
sg116
F0.0
sg117
F0.0
sg118
F0.0
sg119
F0.0
sg120
F0.0
sg121
F0.0
sg122
I-22
sg123
F0.0
sg124
F0.0
sg125
F0.0
sg126
F0.0
sg127
F0.0
sg128
F0.0
sg129
F0.0
sg130
F0.0
sg131
I22
sg132
I8
sg133
F0.0
sg134
F-11.80332796345995
sg135
I-8
sg136
I-22
sg137
F15.4813505202178
sg138
I22
sg139
F0.0
sa(dp154
g115
F0.0
sg116
F0.0
sg117
F0.0
sg118
F0.0
sg119
F0.0
sg120
F0.0
sg121
F0.0
sg122
I-24
sg123
F0.0
sg124
F0.0
sg125
F0.0
sg126
F0.0
sg127
F0.0
sg128
F0.0
sg129
F0.0
sg130
F0.0
sg131
I24
sg132
I-2
sg133
F0.0
sg134
F-11.80332796345995
sg135
I2
sg136
I-24
sg137
F15.4813505202178
sg138
I24
sg139
F0.0
sa(dp155
g115
F0.0
sg116
F0.0
sg117
F0.0
sg118
F0.0
sg119
F0.0
sg120
F0.0
sg121
F0.0
sg122
I-24
sg123
F0.0
sg124
F0.0
sg125
F0.0
sg126
F0.0
sg127
F0.0
sg128
F0.0
sg129
F0.0
sg130
F0.0
sg131
I24
sg132
I0
sg133
F0.0
sg134
F-11.80332796345995
sg135
I0
sg136
I-24
sg137
F15.4813505202178
sg138
I24
sg139
F0.0
sa(dp156
g115
F0.0
sg116
F0.0
sg117
F0.0
sg118
F0.0
sg119
F0.0
sg120
F0.0
sg121
F0.0
sg122
I-24
sg123
F0.0
sg124
F0.0
sg125
F0.0
sg126
F0.0
sg127
F0.0
sg128
F0.0
sg129
F0.0
sg130
F0.0
sg131
I24
sg132
I2
sg133
F0.0
sg134
F-11.80332796345995
sg135
I-2
sg136
I-24
sg137
F15.4813505202178
sg138
I24
sg139
F0.0
sa(dp157
g115
F0.0
sg116
F0.0
sg117
F0.0
sg118
F0.0
sg119
F0.0
sg120
F0.0
sg121
F0.0
sg122
I-24
sg123
F0.0
sg124
F0.0
sg125
F0.0
sg126
F0.0
sg127
F0.0
sg128
F0.0
sg129
F0.0
sg130
F0.0
sg131
I24
sg132
I4
sg133
F0.0
sg134
F-11.80332796345995
sg135
I-4
sg136
I-24
sg137
F15.4813505202178
sg138
I24
sg139
F0.0
sa(dp158
g115
F0.0
sg116
F0.0
sg117
F0.0
sg118
F0.0
sg119
F0.0
sg120
F0.0
sg121
F0.0
sg122
I-24
sg123
F0.0
sg124
F0.0
sg125
F0.0
sg126
F0.0
sg127
F0.0
sg128
F0.0
sg129
F0.0
sg130
F0.0
sg131
I24
sg132
I6
sg133
F0.0
sg134
F-11.80332796345995
sg135
I-6
sg136
I-24
sg137
F15.4813505202178
sg138
I24
sg139
F0.0
sa(dp159
g115
F0.0
sg116
F0.0
sg117
F0.0
sg118
F0.0
sg119
F0.0
sg120
F0.0
sg121
F0.0
sg122
I-24
sg123
F0.0
sg124
F0.0
sg125
F0.0
sg126
F0.0
sg127
F0.0
sg128
F0.0
sg129
F0.0
sg130
F0.0
sg131
I24
sg132
I8
sg133
F0.0
sg134
F-11.80332796345995
sg135
I-8
sg136
I-24
sg137
F15.4813505202178
sg138
I24
sg139
F0.0
sa(dp160
g115
F0.0
sg116
F0.0
sg117
F0.0
sg118
F0.0
sg119
F0.0
sg120
F0.0
sg121
F0.0
sg122
I-26
sg123
F0.0
sg124
F0.0
sg125
F0.0
sg126
F0.0
sg127
F0.0
sg128
F0.0
sg129
F0.0
sg130
F0.0
sg131
I26
sg132
I-2
sg133
F0.0
sg134
F-11.80332796345995
sg135
I2
sg136
I-26
sg137
F15.4813505202178
sg138
I26
sg139
F0.0
sa(dp161
g115
F0.0
sg116
F0.0
sg117
F0.0
sg118
F0.0
sg119
F0.0
sg120
F0.0
sg121
F0.0
sg122
I-26
sg123
F0.0
sg124
F0.0
sg125
F0.0
sg126
F0.0
sg127
F0.0
sg128
F0.0
sg129
F0.0
sg130
F0.0
sg131
I26
sg132
I0
sg133
F0.0
sg134
F-11.80332796345995
sg135
I0
sg136
I-26
sg137
F15.4813505202178
sg138
I26
sg139
F0.0
sa(dp162
g115
F0.0
sg116
F0.0
sg117
F0.0
sg118
F0.0
sg119
F0.0
sg120
F0.0
sg121
F0.0
sg122
I-26
sg123
F0.0
sg124
F0.0
sg125
F0.0
sg126
F0.0
sg127
F0.0
sg128
F0.0
sg129
F0.0
sg130
F0.0
sg131
I26
sg132
I2
sg133
F0.0
sg134
F-11.80332796345995
sg135
I-2
sg136
I-26
sg137
F15.4813505202178
sg138
I26
sg139
F0.0
sasS'plant'
p163
(lp164
(dp165
Vr_hip_z
p166
F0.0
sVr_hip_x
p167
F0.0
sVr_elbow_y
p168
F0.0
sVl_arm_z
p169
F0.0
sVl_hip_x
p170
F0.0
sVl_hip_y
p171
F-11.94823881286602
sVl_hip_z
p172
F0.0
sVabs_x
p173
I24
sVl_elbow_y
p174
F0.0
sVabs_z
p175
F0.0
sVr_hip_y
p176
F0.0
sVr_knee_y
p177
F0.0
sVl_ankle_y
p178
F-11.217205915082102
sVhead_y
p179
F0.0
sVhead_z
p180
F0.0
sVbust_y
p181
I6
sVbust_x
p182
I-24
sVr_arm_z
p183
F0.0
sVr_ankle_y
p184
F0.0
sVabs_y
p185
I-6
sVl_knee_y
p186
F10.627923141859993
sVr_shoulder_x
p187
I-24
sVr_shoulder_y
p188
F0.0
sVl_shoulder_x
p189
I24
sVl_shoulder_y
p190
F0.0
sa(dp191
g166
F0.0
sg167
F0.0
sg168
F0.0
sg169
F0.0
sg170
F0.0
sg171
F-11.94823881286602
sg172
F0.0
sg173
I24
sg174
F0.0
sg175
F0.0
sg176
F0.0
sg177
F0.0
sg178
F-11.217205915082102
sg179
F0.0
sg180
F0.0
sg181
I3
sg182
I-24
sg183
F0.0
sg184
F0.0
sg185
I-3
sg186
F10.627923141859993
sg187
I-24
sg188
F0.0
sg189
I24
sg190
F0.0
sa(dp192
g166
F0.0
sg167
F0.0
sg168
F0.0
sg169
F0.0
sg170
F0.0
sg171
F-11.94823881286602
sg172
F0.0
sg173
I26
sg174
F0.0
sg175
F0.0
sg176
F0.0
sg177
F0.0
sg178
F-11.217205915082102
sg179
F0.0
sg180
F0.0
sg181
I6
sg182
I-26
sg183
F0.0
sg184
F0.0
sg185
I-6
sg186
F10.627923141859993
sg187
I-26
sg188
F0.0
sg189
I26
sg190
F0.0
sa(dp193
g166
F0.0
sg167
F0.0
sg168
F0.0
sg169
F0.0
sg170
F0.0
sg171
F-11.94823881286602
sg172
F0.0
sg173
I26
sg174
F0.0
sg175
F0.0
sg176
F0.0
sg177
F0.0
sg178
F-11.217205915082102
sg179
F0.0
sg180
F0.0
sg181
I3
sg182
I-26
sg183
F0.0
sg184
F0.0
sg185
I-3
sg186
F10.627923141859993
sg187
I-26
sg188
F0.0
sg189
I26
sg190
F0.0
sa(dp194
g166
F0.0
sg167
F0.0
sg168
F0.0
sg169
F0.0
sg170
F0.0
sg171
F-11.94823881286602
sg172
F0.0
sg173
I26
sg174
F0.0
sg175
F0.0
sg176
F0.0
sg177
F0.0
sg178
F-11.217205915082102
sg179
F0.0
sg180
F0.0
sg181
I0
sg182
I-26
sg183
F0.0
sg184
F0.0
sg185
I0
sg186
F10.627923141859993
sg187
I-26
sg188
F0.0
sg189
I26
sg190
F0.0
sa(dp195
g166
F0.0
sg167
F0.0
sg168
F0.0
sg169
F0.0
sg170
F0.0
sg171
F-11.94823881286602
sg172
F0.0
sg173
I28
sg174
F0.0
sg175
F0.0
sg176
F0.0
sg177
F0.0
sg178
F-11.217205915082102
sg179
F0.0
sg180
F0.0
sg181
I6
sg182
I-28
sg183
F0.0
sg184
F0.0
sg185
I-6
sg186
F10.627923141859993
sg187
I-28
sg188
F0.0
sg189
I28
sg190
F0.0
sa(dp196
g166
F0.0
sg167
F0.0
sg168
F0.0
sg169
F0.0
sg170
F0.0
sg171
F-11.94823881286602
sg172
F0.0
sg173
I28
sg174
F0.0
sg175
F0.0
sg176
F0.0
sg177
F0.0
sg178
F-11.217205915082102
sg179
F0.0
sg180
F0.0
sg181
I3
sg182
I-28
sg183
F0.0
sg184
F0.0
sg185
I-3
sg186
F10.627923141859993
sg187
I-28
sg188
F0.0
sg189
I28
sg190
F0.0
sa(dp197
g166
F0.0
sg167
F0.0
sg168
F0.0
sg169
F0.0
sg170
F0.0
sg171
F-11.94823881286602
sg172
F0.0
sg173
I28
sg174
F0.0
sg175
F0.0
sg176
F0.0
sg177
F0.0
sg178
F-11.217205915082102
sg179
F0.0
sg180
F0.0
sg181
I0
sg182
I-28
sg183
F0.0
sg184
F0.0
sg185
I0
sg186
F10.627923141859993
sg187
I-28
sg188
F0.0
sg189
I28
sg190
F0.0
sa(dp198
g166
F0.0
sg167
F0.0
sg168
F0.0
sg169
F0.0
sg170
F0.0
sg171
F-11.94823881286602
sg172
F0.0
sg173
I30
sg174
F0.0
sg175
F0.0
sg176
F0.0
sg177
F0.0
sg178
F-11.217205915082102
sg179
F0.0
sg180
F0.0
sg181
I6
sg182
I-30
sg183
F0.0
sg184
F0.0
sg185
I-6
sg186
F10.627923141859993
sg187
I-30
sg188
F0.0
sg189
I30
sg190
F0.0
sa(dp199
g166
F0.0
sg167
F0.0
sg168
F0.0
sg169
F0.0
sg170
F0.0
sg171
F-11.94823881286602
sg172
F0.0
sg173
I30
sg174
F0.0
sg175
F0.0
sg176
F0.0
sg177
F0.0
sg178
F-11.217205915082102
sg179
F0.0
sg180
F0.0
sg181
I3
sg182
I-30
sg183
F0.0
sg184
F0.0
sg185
I-3
sg186
F10.627923141859993
sg187
I-30
sg188
F0.0
sg189
I30
sg190
F0.0
sas(dp200
g1
(lp201
(dp202
S'l_elbow_y'
p203
cnumpy.core.multiarray
scalar
p204
(cnumpy
dtype
p205
(S'f8'
p206
I0
I1
tp207
Rp208
(I3
S'<'
p209
NNNI-1
I-1
I0
tp210
bS'\xd7\xa3p=\n\xd7\xd3?'
p211
tp212
Rp213
sS'r_elbow_y'
p214
g204
(g208
S')\\\x8f\xc2\xf5(\xcc\xbf'
p215
tp216
Rp217
sS'r_knee_y'
p218
g204
(g208
S'\x9a\x99\x99\x99\x99\x99\x1b@'
p219
tp220
Rp221
sS'head_y'
p222
g204
(g208
S'\x00\x00\x00\x00\x00\x00\xe0\xbf'
p223
tp224
Rp225
sS'r_ankle_y'
p226
g204
(g208
S'\xa4p=\n\xd7\xa3\xc0\xbf'
p227
tp228
Rp229
sS'r_arm_z'
p230
g204
(g208
S'\x00\x00\x00\x00\x00\x00\xe8?'
p231
tp232
Rp233
sS'head_z'
p234
g204
(g208
S')\\\x8f\xc2\xf5(\xdc\xbf'
p235
tp236
Rp237
sS'r_shoulder_x'
p238
g204
(g208
S'\xf0Q\xb8\x1e\x85\xeb\x1c\xc0'
p239
tp240
Rp241
sS'r_shoulder_y'
p242
g204
(g208
S'@33333\x03\xc0'
p243
tp244
Rp245
sS'r_hip_z'
p246
g204
(g208
S'q=\n\xd7\xa3p\xed?'
p247
tp248
Rp249
sS'r_hip_x'
p250
g204
(g208
S'\xa4p=\n\xd7\xa3\xf8?'
p251
tp252
Rp253
sS'r_hip_y'
p254
g204
(g208
S')\\\x8f\xc2\xf5(\x13\xc0'
p255
tp256
Rp257
sS'l_arm_z'
p258
g204
(g208
S'\xa4p=\n\xd7\xa3\xc0?'
p259
tp260
Rp261
sS'l_hip_x'
p262
g204
(g208
S'\xb8\x1e\x85\xebQ\xb8\xde\xbf'
p263
tp264
Rp265
sS'l_hip_y'
p266
g204
(g208
S'\x14\xaeG\xe1z\x14\x0e@'
p267
tp268
Rp269
sS'l_hip_z'
p270
g204
(g208
S'\xcd\xcc\xcc\xcc\xcc\xcc\xfc?'
p271
tp272
Rp273
sS'abs_x'
p274
g204
(g208
S'\xb8\x1e\x85\xebQ\xb8\xde?'
p275
tp276
Rp277
sS'abs_y'
p278
g204
(g208
S'333333\x1a@'
p279
tp280
Rp281
sS'abs_z'
p282
g204
(g208
S'\xc3\xf5(\\\x8f\xc2\x0b@'
p283
tp284
Rp285
sS'l_ankle_y'
p286
g204
(g208
S'\x85\xebQ\xb8\x1e\x85\x13\xc0'
p287
tp288
Rp289
sS'bust_y'
p290
g204
(g208
S'\xecQ\xb8\x1e\x85\xeb\x01\xc0'
p291
tp292
Rp293
sS'bust_x'
p294
g204
(g208
S'H\xe1z\x14\xaeG\x15@'
p295
tp296
Rp297
sS'l_knee_y'
p298
g204
(g208
S'\xb8\x1e\x85\xebQ\xb8\xde?'
p299
tp300
Rp301
sS'l_shoulder_x'
p302
g204
(g208
S'\x10\xd7\xa3p=\n\x12@'
p303
tp304
Rp305
sS'l_shoulder_y'
p306
g204
(g208
S'`fffff\x0e\xc0'
p307
tp308
Rp309
sa(dp310
g203
g204
(g208
S'\xd7\xa3p=\n\xd7\xd3?'
p311
tp312
Rp313
sg214
g204
(g208
S')\\\x8f\xc2\xf5(\xcc\xbf'
p314
tp315
Rp316
sg218
g204
(g208
S'\x14\xaeG\xe1z\x14\x1e@'
p317
tp318
Rp319
sg222
g204
(g208
S'\x00\x00\x00\x00\x00\x00\xe0\xbf'
p320
tp321
Rp322
sg226
g204
(g208
S'{\x14\xaeG\xe1z\xa4\xbf'
p323
tp324
Rp325
sg230
g204
(g208
S'{\x14\xaeG\xe1z\xa4?'
p326
tp327
Rp328
sg234
g204
(g208
S'333333\xc3\xbf'
p329
tp330
Rp331
sg238
g204
(g208
S'\x10\xaeG\xe1z\x14\x13\xc0'
p332
tp333
Rp334
sg242
g204
(g208
S'\x00\x9a\x99\x99\x99\x99\xc9\xbf'
p335
tp336
Rp337
sg246
g204
(g208
S'\xa4p=\n\xd7\xa3\xc0?'
p338
tp339
Rp340
sg250
g204
(g208
S'\xa4p=\n\xd7\xa3\xc0?'
p341
tp342
Rp343
sg254
g204
(g208
S'H\xe1z\x14\xaeG\x15\xc0'
p344
tp345
Rp346
sg258
g204
(g208
S'\xa4p=\n\xd7\xa3\xc0?'
p347
tp348
Rp349
sg262
g204
(g208
S'\xd7\xa3p=\n\xd7\xd3?'
p350
tp351
Rp352
sg266
g204
(g208
S'=\n\xd7\xa3p=\x13@'
p353
tp354
Rp355
sg270
g204
(g208
S'\x9a\x99\x99\x99\x99\x99\xd9?'
p356
tp357
Rp358
sg274
g204
(g208
S'\xa4p=\n\xd7\xa3\xc0?'
p359
tp360
Rp361
sg278
g204
(g208
S'\xd7\xa3p=\n\xd7!@'
p362
tp363
Rp364
sg282
g204
(g208
S'{\x14\xaeG\xe1z\xa4?'
p365
tp366
Rp367
sg286
g204
(g208
S'ffffff\x17\xc0'
p368
tp369
Rp370
sg290
g204
(g208
S'fffff\xe6"\xc0'
p371
tp372
Rp373
sg294
g204
(g208
S'\xb8\x1e\x85\xebQ\xb8\xde?'
p374
tp375
Rp376
sg298
g204
(g208
S'=\n\xd7\xa3p=\xe2\xbf'
p377
tp378
Rp379
sg302
g204
(g208
S'\x10\xaeG\xe1z\x14\x13@'
p380
tp381
Rp382
sg306
g204
(g208
S'\x00=\n\xd7\xa3p\xdd\xbf'
p383
tp384
Rp385
sa(dp386
g203
g204
(g208
S'\xd7\xa3p=\n\xd7\xd3?'
p387
tp388
Rp389
sg214
g204
(g208
S')\\\x8f\xc2\xf5(\xcc\xbf'
p390
tp391
Rp392
sg218
g204
(g208
S'333333\x1a@'
p393
tp394
Rp395
sg222
g204
(g208
S'@\xe1z\x14\xaeG\xe9\xbf'
p396
tp397
Rp398
sg226
g204
(g208
S'\x00\x00\x00\x00\x00\x00\xe8\xbf'
p399
tp400
Rp401
sg230
g204
(g208
S'\xa4p=\n\xd7\xa3\xc0?'
p402
tp403
Rp404
sg234
g204
(g208
S'333333\xc3\xbf'
p405
tp406
Rp407
sg238
g204
(g208
S'\x10\xaeG\xe1z\x14\x13\xc0'
p408
tp409
Rp410
sg242
g204
(g208
S'\x00\x9a\x99\x99\x99\x99\xc9\xbf'
p411
tp412
Rp413
sg246
g204
(g208
S'\xa4p=\n\xd7\xa3\xc0?'
p414
tp415
Rp416
sg250
g204
(g208
S'{\x14\xaeG\xe1z\xa4?'
p417
tp418
Rp419
sg254
g204
(g208
S'\xf6(\\\x8f\xc2\xf5\x15\xc0'
p420
tp421
Rp422
sg258
g204
(g208
S'\xa4p=\n\xd7\xa3\xc0?'
p423
tp424
Rp425
sg262
g204
(g208
S'\x9a\x99\x99\x99\x99\x99\xd9?'
p426
tp427
Rp428
sg266
g204
(g208
S'=\n\xd7\xa3p=\x13@'
p429
tp430
Rp431
sg270
g204
(g208
S'\x9a\x99\x99\x99\x99\x99\xd9?'
p432
tp433
Rp434
sg274
g204
(g208
S'{\x14\xaeG\xe1z\xa4?'
p435
tp436
Rp437
sg278
g204
(g208
S'33333\xb3(@'
p438
tp439
Rp440
sg282
g204
(g208
S'{\x14\xaeG\xe1z\xa4?'
p441
tp442
Rp443
sg286
g204
(g208
S'\xd7\xa3p=\n\xd7\x19\xc0'
p444
tp445
Rp446
sg290
g204
(g208
S'\xe1z\x14\xaeG\xe1(\xc0'
p447
tp448
Rp449
sg294
g204
(g208
S'=\n\xd7\xa3p=\xe2?'
p450
tp451
Rp452
sg298
g204
(g208
S'333333\xf7\xbf'
p453
tp454
Rp455
sg302
g204
(g208
S'\x10\xaeG\xe1z\x14\x13@'
p456
tp457
Rp458
sg306
g204
(g208
S'\x00H\xe1z\x14\xae\xd7\xbf'
p459
tp460
Rp461
sa(dp462
g203
g204
(g208
S'\xd7\xa3p=\n\xd7\xd3?'
p463
tp464
Rp465
sg214
g204
(g208
S')\\\x8f\xc2\xf5(\xcc\xbf'
p466
tp467
Rp468
sg218
g204
(g208
S'q=\n\xd7\xa3p\x18@'
p469
tp470
Rp471
sg222
g204
(g208
S'\x00\x00\x00\x00\x00\x00\xe0\xbf'
p472
tp473
Rp474
sg226
g204
(g208
S'333333\xf7\xbf'
p475
tp476
Rp477
sg230
g204
(g208
S'\xa4p=\n\xd7\xa3\xc0?'
p478
tp479
Rp480
sg234
g204
(g208
S'333333\xc3\xbf'
p481
tp482
Rp483
sg238
g204
(g208
S'\xc0\x1e\x85\xebQ\xb8\x12\xc0'
p484
tp485
Rp486
sg242
g204
(g208
S'\x00\x9a\x99\x99\x99\x99\xc9\xbf'
p487
tp488
Rp489
sg246
g204
(g208
S')\\\x8f\xc2\xf5(\xcc?'
p490
tp491
Rp492
sg250
g204
(g208
S'{\x14\xaeG\xe1z\xa4\xbf'
p493
tp494
Rp495
sg254
g204
(g208
S'\xf6(\\\x8f\xc2\xf5\x15\xc0'
p496
tp497
Rp498
sg258
g204
(g208
S'\xa4p=\n\xd7\xa3\xc0?'
p499
tp500
Rp501
sg262
g204
(g208
S'\xa4p=\n\xd7\xa3\xc0\xbf'
p502
tp503
Rp504
sg266
g204
(g208
S'=\n\xd7\xa3p=\x13@'
p505
tp506
Rp507
sg270
g204
(g208
S'\x9a\x99\x99\x99\x99\x99\xd9?'
p508
tp509
Rp510
sg274
g204
(g208
S'\x14\xaeG\xe1z\x14\xfa?'
p511
tp512
Rp513
sg278
g204
(g208
S'\x9a\x99\x99\x99\x99\x99\x1b@'
p514
tp515
Rp516
sg282
g204
(g208
S'{\x14\xaeG\xe1z\xa4?'
p517
tp518
Rp519
sg286
g204
(g208
S'\x1f\x85\xebQ\xb8\x1e\x1f\xc0'
p520
tp521
Rp522
sg290
g204
(g208
S'\x1f\x85\xebQ\xb8\x1e\x1f\xc0'
p523
tp524
Rp525
sg294
g204
(g208
S'\x14\xaeG\xe1z\x14\xfa\xbf'
p526
tp527
Rp528
sg298
g204
(g208
S'333333\xf7\xbf'
p529
tp530
Rp531
sg302
g204
(g208
S'\xd0\xcc\xcc\xcc\xcc\xcc\x13@'
p532
tp533
Rp534
sg306
g204
(g208
S'\x00=\n\xd7\xa3p\xdd\xbf'
p535
tp536
Rp537
sa(dp538
g203
g204
(g208
S')\\\x8f\xc2\xf5(\xcc?'
p539
tp540
Rp541
sg214
g204
(g208
S')\\\x8f\xc2\xf5(\xcc\xbf'
p542
tp543
Rp544
sg218
g204
(g208
S'\x14\xaeG\xe1z\x14\x1e@'
p545
tp546
Rp547
sg222
g204
(g208
S'\x00\x00\x00\x00\x00\x00\xe0\xbf'
p548
tp549
Rp550
sg226
g204
(g208
S')\\\x8f\xc2\xf5(\xcc?'
p551
tp552
Rp553
sg230
g204
(g208
S'\xa4p=\n\xd7\xa3\xc0?'
p554
tp555
Rp556
sg234
g204
(g208
S'333333\xc3\xbf'
p557
tp558
Rp559
sg238
g204
(g208
S'\xc0\x1e\x85\xebQ\xb8\x12\xc0'
p560
tp561
Rp562
sg242
g204
(g208
S'\x00\x9a\x99\x99\x99\x99\xc9\xbf'
p563
tp564
Rp565
sg246
g204
(g208
S'{\x14\xaeG\xe1z\xa4\xbf'
p566
tp567
Rp568
sg250
g204
(g208
S')\\\x8f\xc2\xf5(\xcc\xbf'
p569
tp570
Rp571
sg254
g204
(g208
S'R\xb8\x1e\x85\xebQ\x16\xc0'
p572
tp573
Rp574
sg258
g204
(g208
S'\xa4p=\n\xd7\xa3\xc0?'
p575
tp576
Rp577
sg262
g204
(g208
S'\xd7\xa3p=\n\xd7\xd3?'
p578
tp579
Rp580
sg266
g204
(g208
S'\x9a\x99\x99\x99\x99\x99\x13@'
p581
tp582
Rp583
sg270
g204
(g208
S')\\\x8f\xc2\xf5(\xcc?'
p584
tp585
Rp586
sg274
g204
(g208
S'\n\xd7\xa3p=\n\x0b@'
p587
tp588
Rp589
sg278
g204
(g208
S'\x85\xebQ\xb8\x1e\x05"@'
p590
tp591
Rp592
sg282
g204
(g208
S'{\x14\xaeG\xe1z\xa4?'
p593
tp594
Rp595
sg286
g204
(g208
S'ffffff\x17\xc0'
p596
tp597
Rp598
sg290
g204
(g208
S'fffff\xe6"\xc0'
p599
tp600
Rp601
sg294
g204
(g208
S'\xe1z\x14\xaeG\xe1\x06\xc0'
p602
tp603
Rp604
sg298
g204
(g208
S'=\n\xd7\xa3p=\xe2\xbf'
p605
tp606
Rp607
sg302
g204
(g208
S'p=\n\xd7\xa3p\x13@'
p608
tp609
Rp610
sg306
g204
(g208
S'\x00=\n\xd7\xa3p\xdd\xbf'
p611
tp612
Rp613
sa(dp614
g203
g204
(g208
S')\\\x8f\xc2\xf5(\xcc?'
p615
tp616
Rp617
sg214
g204
(g208
S')\\\x8f\xc2\xf5(\xcc\xbf'
p618
tp619
Rp620
sg218
g204
(g208
S'\\\x8f\xc2\xf5(\\\x1d@'
p621
tp622
Rp623
sg222
g204
(g208
S'\x00\x00\x00\x00\x00\x00\xe0\xbf'
p624
tp625
Rp626
sg226
g204
(g208
S'\xb8\x1e\x85\xebQ\xb8\xde\xbf'
p627
tp628
Rp629
sg230
g204
(g208
S'\xa4p=\n\xd7\xa3\xc0?'
p630
tp631
Rp632
sg234
g204
(g208
S'333333\xc3\xbf'
p633
tp634
Rp635
sg238
g204
(g208
S'\xc0\x1e\x85\xebQ\xb8\x12\xc0'
p636
tp637
Rp638
sg242
g204
(g208
S'\x00\x9a\x99\x99\x99\x99\xc9\xbf'
p639
tp640
Rp641
sg246
g204
(g208
S'{\x14\xaeG\xe1z\xa4?'
p642
tp643
Rp644
sg250
g204
(g208
S')\\\x8f\xc2\xf5(\xcc\xbf'
p645
tp646
Rp647
sg254
g204
(g208
S'\xaeG\xe1z\x14\xae\x16\xc0'
p648
tp649
Rp650
sg258
g204
(g208
S'\xa4p=\n\xd7\xa3\xc0?'
p651
tp652
Rp653
sg262
g204
(g208
S'\x9a\x99\x99\x99\x99\x99\xd9?'
p654
tp655
Rp656
sg266
g204
(g208
S'\x9a\x99\x99\x99\x99\x99\x13@'
p657
tp658
Rp659
sg270
g204
(g208
S')\\\x8f\xc2\xf5(\xcc?'
p660
tp661
Rp662
sg274
g204
(g208
S'\n\xd7\xa3p=\n\x0b@'
p663
tp664
Rp665
sg278
g204
(g208
S'\\\x8f\xc2\xf5(\\(@'
p666
tp667
Rp668
sg282
g204
(g208
S'{\x14\xaeG\xe1z\xa4?'
p669
tp670
Rp671
sg286
g204
(g208
S'{\x14\xaeG\xe1z\x19\xc0'
p672
tp673
Rp674
sg290
g204
(g208
S'\xe1z\x14\xaeG\xe1(\xc0'
p675
tp676
Rp677
sg294
g204
(g208
S'\xe1z\x14\xaeG\xe1\x06\xc0'
p678
tp679
Rp680
sg298
g204
(g208
S')\\\x8f\xc2\xf5(\xf0\xbf'
p681
tp682
Rp683
sg302
g204
(g208
S'\xd0\xcc\xcc\xcc\xcc\xcc\x13@'
p684
tp685
Rp686
sg306
g204
(g208
S'\x00H\xe1z\x14\xae\xd7\xbf'
p687
tp688
Rp689
sa(dp690
g203
g204
(g208
S')\\\x8f\xc2\xf5(\xcc?'
p691
tp692
Rp693
sg214
g204
(g208
S')\\\x8f\xc2\xf5(\xcc\xbf'
p694
tp695
Rp696
sg218
g204
(g208
S'\xcd\xcc\xcc\xcc\xcc\xcc\x18@'
p697
tp698
Rp699
sg222
g204
(g208
S'\x00\x00\x00\x00\x00\x00\xe0\xbf'
p700
tp701
Rp702
sg226
g204
(g208
S'\n\xd7\xa3p=\n\xf3\xbf'
p703
tp704
Rp705
sg230
g204
(g208
S'\xa4p=\n\xd7\xa3\xc0?'
p706
tp707
Rp708
sg234
g204
(g208
S'333333\xc3\xbf'
p709
tp710
Rp711
sg238
g204
(g208
S'\xc0\x1e\x85\xebQ\xb8\x12\xc0'
p712
tp713
Rp714
sg242
g204
(g208
S'\x00\x9a\x99\x99\x99\x99\xc9\xbf'
p715
tp716
Rp717
sg246
g204
(g208
S'\xa4p=\n\xd7\xa3\xc0?'
p718
tp719
Rp720
sg250
g204
(g208
S')\\\x8f\xc2\xf5(\xcc\xbf'
p721
tp722
Rp723
sg254
g204
(g208
S'\xb8\x1e\x85\xebQ\xb8\x17\xc0'
p724
tp725
Rp726
sg258
g204
(g208
S'\xa4p=\n\xd7\xa3\xc0?'
p727
tp728
Rp729
sg262
g204
(g208
S'\x9a\x99\x99\x99\x99\x99\xd9?'
p730
tp731
Rp732
sg266
g204
(g208
S'=\n\xd7\xa3p=\x13@'
p733
tp734
Rp735
sg270
g204
(g208
S')\\\x8f\xc2\xf5(\xcc?'
p736
tp737
Rp738
sg274
g204
(g208
S'\n\xd7\xa3p=\n\x0b@'
p739
tp740
Rp741
sg278
g204
(g208
S'\\\x8f\xc2\xf5(\xdc.@'
p742
tp743
Rp744
sg282
g204
(g208
S'{\x14\xaeG\xe1z\xa4?'
p745
tp746
Rp747
sg286
g204
(g208
S'\x00\x00\x00\x00\x00\x00\x1d\xc0'
p748
tp749
Rp750
sg290
g204
(g208
S'\\\x8f\xc2\xf5(\xdc.\xc0'
p751
tp752
Rp753
sg294
g204
(g208
S'\xe1z\x14\xaeG\xe1\x06\xc0'
p754
tp755
Rp756
sg298
g204
(g208
S'\\\x8f\xc2\xf5(\\\xfb\xbf'
p757
tp758
Rp759
sg302
g204
(g208
S'\xd0\xcc\xcc\xcc\xcc\xcc\x13@'
p760
tp761
Rp762
sg306
g204
(g208
S'\x00=\n\xd7\xa3p\xdd\xbf'
p763
tp764
Rp765
sa(dp766
g203
g204
(g208
S')\\\x8f\xc2\xf5(\xcc?'
p767
tp768
Rp769
sg214
g204
(g208
S')\\\x8f\xc2\xf5(\xcc\xbf'
p770
tp771
Rp772
sg218
g204
(g208
S'{\x14\xaeG\xe1z\x19@'
p773
tp774
Rp775
sg222
g204
(g208
S'\x00\x00\x00\x00\x00\x00\xe0\xbf'
p776
tp777
Rp778
sg226
g204
(g208
S')\\\x8f\xc2\xf5(\xf0\xbf'
p779
tp780
Rp781
sg230
g204
(g208
S'{\x14\xaeG\xe1z\xa4?'
p782
tp783
Rp784
sg234
g204
(g208
S'333333\xc3\xbf'
p785
tp786
Rp787
sg238
g204
(g208
S'\xd0\xa3p=\n\xd7\x14\xc0'
p788
tp789
Rp790
sg242
g204
(g208
S'\x00\x9a\x99\x99\x99\x99\xc9\xbf'
p791
tp792
Rp793
sg246
g204
(g208
S')\\\x8f\xc2\xf5(\xcc?'
p794
tp795
Rp796
sg250
g204
(g208
S')\\\x8f\xc2\xf5(\xcc?'
p797
tp798
Rp799
sg254
g204
(g208
S'ffffff\x17\xc0'
p800
tp801
Rp802
sg258
g204
(g208
S'\xa4p=\n\xd7\xa3\xc0?'
p803
tp804
Rp805
sg262
g204
(g208
S'\xd7\xa3p=\n\xd7\xd3\xbf'
p806
tp807
Rp808
sg266
g204
(g208
S'\x9a\x99\x99\x99\x99\x99\x13@'
p809
tp810
Rp811
sg270
g204
(g208
S'\xa4p=\n\xd7\xa3\xc0?'
p812
tp813
Rp814
sg274
g204
(g208
S'H\xe1z\x14\xaeG\x15@'
p815
tp816
Rp817
sg278
g204
(g208
S'\x8f\xc2\xf5(\\\x8f\x1a@'
p818
tp819
Rp820
sg282
g204
(g208
S'\xd7\xa3p=\n\xd7\xd3?'
p821
tp822
Rp823
sg286
g204
(g208
S'\xa4p=\n\xd7\xa3\x1c\xc0'
p824
tp825
Rp826
sg290
g204
(g208
S'\xc3\xf5(\\\x8f\xc2\x1e\xc0'
p827
tp828
Rp829
sg294
g204
(g208
S'\x1f\x85\xebQ\xb8\x1e\x12\xc0'
p830
tp831
Rp832
sg298
g204
(g208
S'\x14\xaeG\xe1z\x14\xfa\xbf'
p833
tp834
Rp835
sg302
g204
(g208
S'\xf0(\\\x8f\xc2\xf5\x16@'
p836
tp837
Rp838
sg306
g204
(g208
S'\x00H\xe1z\x14\xae\xd7\xbf'
p839
tp840
Rp841
sa(dp842
g203
g204
(g208
S'\xa4p=\n\xd7\xa3\xc0?'
p843
tp844
Rp845
sg214
g204
(g208
S')\\\x8f\xc2\xf5(\xcc\xbf'
p846
tp847
Rp848
sg218
g204
(g208
S'\xb8\x1e\x85\xebQ\xb8\x1d@'
p849
tp850
Rp851
sg222
g204
(g208
S'\x00\x00\x00\x00\x00\x00\xe0\xbf'
p852
tp853
Rp854
sg226
g204
(g208
S'\x9a\x99\x99\x99\x99\x99\xd9?'
p855
tp856
Rp857
sg230
g204
(g208
S'\xa4p=\n\xd7\xa3\xc0?'
p858
tp859
Rp860
sg234
g204
(g208
S'333333\xc3\xbf'
p861
tp862
Rp863
sg238
g204
(g208
S'\x80\xebQ\xb8\x1e\x85\x15\xc0'
p864
tp865
Rp866
sg242
g204
(g208
S'\x00\x9a\x99\x99\x99\x99\xc9\xbf'
p867
tp868
Rp869
sg246
g204
(g208
S'{\x14\xaeG\xe1z\xa4\xbf'
p870
tp871
Rp872
sg250
g204
(g208
S'\x9a\x99\x99\x99\x99\x99\xd9\xbf'
p873
tp874
Rp875
sg254
g204
(g208
S'\n\xd7\xa3p=\n\x17\xc0'
p876
tp877
Rp878
sg258
g204
(g208
S'\xa4p=\n\xd7\xa3\xc0?'
p879
tp880
Rp881
sg262
g204
(g208
S')\\\x8f\xc2\xf5(\xcc?'
p882
tp883
Rp884
sg266
g204
(g208
S'\xf6(\\\x8f\xc2\xf5\x13@'
p885
tp886
Rp887
sg270
g204
(g208
S'{\x14\xaeG\xe1z\xa4?'
p888
tp889
Rp890
sg274
g204
(g208
S')\\\x8f\xc2\xf5(\x19@'
p891
tp892
Rp893
sg278
g204
(g208
S'\x85\xebQ\xb8\x1e\x05"@'
p894
tp895
Rp896
sg282
g204
(g208
S'\xa4p=\n\xd7\xa3\xc0?'
p897
tp898
Rp899
sg286
g204
(g208
S'\x14\xaeG\xe1z\x14\x18\xc0'
p900
tp901
Rp902
sg290
g204
(g208
S'\xf6(\\\x8f\xc2\xf5 \xc0'
p903
tp904
Rp905
sg294
g204
(g208
S'\xf6(\\\x8f\xc2\xf5\x15\xc0'
p906
tp907
Rp908
sg298
g204
(g208
S'\x00\x00\x00\x00\x00\x00\xe8\xbf'
p909
tp910
Rp911
sg302
g204
(g208
S'\xf0(\\\x8f\xc2\xf5\x16@'
p912
tp913
Rp914
sg306
g204
(g208
S'\x00=\n\xd7\xa3p\xdd\xbf'
p915
tp916
Rp917
sa(dp918
g203
g204
(g208
S'\xa4p=\n\xd7\xa3\xc0?'
p919
tp920
Rp921
sg214
g204
(g208
S')\\\x8f\xc2\xf5(\xcc\xbf'
p922
tp923
Rp924
sg218
g204
(g208
S'\xb8\x1e\x85\xebQ\xb8\x1d@'
p925
tp926
Rp927
sg222
g204
(g208
S'\x00{\x14\xaeG\xe1\xca\xbf'
p928
tp929
Rp930
sg226
g204
(g208
S'{\x14\xaeG\xe1z\xa4\xbf'
p931
tp932
Rp933
sg230
g204
(g208
S'\xa4p=\n\xd7\xa3\xc0?'
p934
tp935
Rp936
sg234
g204
(g208
S'333333\xc3\xbf'
p937
tp938
Rp939
sg238
g204
(g208
S'\x80\xebQ\xb8\x1e\x85\x15\xc0'
p940
tp941
Rp942
sg242
g204
(g208
S'\x00\x9a\x99\x99\x99\x99\xc9\xbf'
p943
tp944
Rp945
sg246
g204
(g208
S'{\x14\xaeG\xe1z\xa4\xbf'
p946
tp947
Rp948
sg250
g204
(g208
S'\x9a\x99\x99\x99\x99\x99\xd9\xbf'
p949
tp950
Rp951
sg254
g204
(g208
S'\xb8\x1e\x85\xebQ\xb8\x17\xc0'
p952
tp953
Rp954
sg258
g204
(g208
S'\xa4p=\n\xd7\xa3\xc0?'
p955
tp956
Rp957
sg262
g204
(g208
S'\xd7\xa3p=\n\xd7\xd3?'
p958
tp959
Rp960
sg266
g204
(g208
S'\xf6(\\\x8f\xc2\xf5\x13@'
p961
tp962
Rp963
sg270
g204
(g208
S'{\x14\xaeG\xe1z\xa4?'
p964
tp965
Rp966
sg274
g204
(g208
S')\\\x8f\xc2\xf5(\x19@'
p967
tp968
Rp969
sg278
g204
(g208
S'\x85\xebQ\xb8\x1e\x85(@'
p970
tp971
Rp972
sg282
g204
(g208
S'\xa4p=\n\xd7\xa3\xc0?'
p973
tp974
Rp975
sg286
g204
(g208
S'{\x14\xaeG\xe1z\x19\xc0'
p976
tp977
Rp978
sg290
g204
(g208
S'\x8f\xc2\xf5(\\\x0f)\xc0'
p979
tp980
Rp981
sg294
g204
(g208
S'\xf6(\\\x8f\xc2\xf5\x15\xc0'
p982
tp983
Rp984
sg298
g204
(g208
S')\\\x8f\xc2\xf5(\xf0\xbf'
p985
tp986
Rp987
sg302
g204
(g208
S'@\xe1z\x14\xaeG\x17@'
p988
tp989
Rp990
sg306
g204
(g208
S'\x00H\xe1z\x14\xae\xd7\xbf'
p991
tp992
Rp993
sa(dp994
g203
g204
(g208
S'\xa4p=\n\xd7\xa3\xc0?'
p995
tp996
Rp997
sg214
g204
(g208
S')\\\x8f\xc2\xf5(\xcc\xbf'
p998
tp999
Rp1000
sg218
g204
(g208
S'{\x14\xaeG\xe1z\x19@'
p1001
tp1002
Rp1003
sg222
g204
(g208
S'\x00{\x14\xaeG\xe1\xca\xbf'
p1004
tp1005
Rp1006
sg226
g204
(g208
S'\x00\x00\x00\x00\x00\x00\xe8\xbf'
p1007
tp1008
Rp1009
sg230
g204
(g208
S'\xa4p=\n\xd7\xa3\xc0?'
p1010
tp1011
Rp1012
sg234
g204
(g208
S'333333\xc3\xbf'
p1013
tp1014
Rp1015
sg238
g204
(g208
S'\x80\xebQ\xb8\x1e\x85\x15\xc0'
p1016
tp1017
Rp1018
sg242
g204
(g208
S'\x00\x9a\x99\x99\x99\x99\xc9\xbf'
p1019
tp1020
Rp1021
sg246
g204
(g208
S'{\x14\xaeG\xe1z\xa4\xbf'
p1022
tp1023
Rp1024
sg250
g204
(g208
S'\x9a\x99\x99\x99\x99\x99\xd9\xbf'
p1025
tp1026
Rp1027
sg254
g204
(g208
S'\xb8\x1e\x85\xebQ\xb8\x17\xc0'
p1028
tp1029
Rp1030
sg258
g204
(g208
S'\xa4p=\n\xd7\xa3\xc0?'
p1031
tp1032
Rp1033
sg262
g204
(g208
S'\xd7\xa3p=\n\xd7\xd3?'
p1034
tp1035
Rp1036
sg266
g204
(g208
S'\x9a\x99\x99\x99\x99\x99\x13@'
p1037
tp1038
Rp1039
sg270
g204
(g208
S'{\x14\xaeG\xe1z\xa4?'
p1040
tp1041
Rp1042
sg274
g204
(g208
S')\\\x8f\xc2\xf5(\x19@'
p1043
tp1044
Rp1045
sg278
g204
(g208
S'\xaeG\xe1z\x14\xae.@'
p1046
tp1047
Rp1048
sg282
g204
(g208
S')\\\x8f\xc2\xf5(\xcc?'
p1049
tp1050
Rp1051
sg286
g204
(g208
S'R\xb8\x1e\x85\xebQ\x1c\xc0'
p1052
tp1053
Rp1054
sg290
g204
(g208
S'\\\x8f\xc2\xf5(\xdc.\xc0'
p1055
tp1056
Rp1057
sg294
g204
(g208
S'\xf6(\\\x8f\xc2\xf5\x15\xc0'
p1058
tp1059
Rp1060
sg298
g204
(g208
S'333333\xf7\xbf'
p1061
tp1062
Rp1063
sg302
g204
(g208
S'@\xe1z\x14\xaeG\x17@'
p1064
tp1065
Rp1066
sg306
g204
(g208
S'\x00H\xe1z\x14\xae\xd7\xbf'
p1067
tp1068
Rp1069
sa(dp1070
g203
g204
(g208
S')\\\x8f\xc2\xf5(\xcc?'
p1071
tp1072
Rp1073
sg214
g204
(g208
S')\\\x8f\xc2\xf5(\xcc\xbf'
p1074
tp1075
Rp1076
sg218
g204
(g208
S'\n\xd7\xa3p=\n\x17@'
p1077
tp1078
Rp1079
sg222
g204
(g208
S'\x00\x00\x00\x00\x00\x00\xe0\xbf'
p1080
tp1081
Rp1082
sg226
g204
(g208
S'\xaeG\xe1z\x14\xae\xff\xbf'
p1083
tp1084
Rp1085
sg230
g204
(g208
S'\xa4p=\n\xd7\xa3\xc0?'
p1086
tp1087
Rp1088
sg234
g204
(g208
S'333333\xc3\xbf'
p1089
tp1090
Rp1091
sg238
g204
(g208
S'@\xe1z\x14\xaeG\x1d\xc0'
p1092
tp1093
Rp1094
sg242
g204
(g208
S'\x00\xc3\xf5(\\\x8f\xd2\xbf'
p1095
tp1096
Rp1097
sg246
g204
(g208
S'\xa4p=\n\xd7\xa3\xc0?'
p1098
tp1099
Rp1100
sg250
g204
(g208
S'\xd7\xa3p=\n\xd7\xd3\xbf'
p1101
tp1102
Rp1103
sg254
g204
(g208
S'\n\xd7\xa3p=\n\x17\xc0'
p1104
tp1105
Rp1106
sg258
g204
(g208
S'\xa4p=\n\xd7\xa3\xc0?'
p1107
tp1108
Rp1109
sg262
g204
(g208
S'\x00\x00\x00\x00\x00\x00\xe8\xbf'
p1110
tp1111
Rp1112
sg266
g204
(g208
S'\x9a\x99\x99\x99\x99\x99\x13@'
p1113
tp1114
Rp1115
sg270
g204
(g208
S')\\\x8f\xc2\xf5(\xcc?'
p1116
tp1117
Rp1118
sg274
g204
(g208
S'q=\n\xd7\xa3p @'
p1119
tp1120
Rp1121
sg278
g204
(g208
S'\xf6(\\\x8f\xc2\xf5\x1b@'
p1122
tp1123
Rp1124
sg282
g204
(g208
S'\xa4p=\n\xd7\xa3\xc0?'
p1125
tp1126
Rp1127
sg286
g204
(g208
S'\xc3\xf5(\\\x8fB \xc0'
p1128
tp1129
Rp1130
sg290
g204
(g208
S'ffffff\x1e\xc0'
p1131
tp1132
Rp1133
sg294
g204
(g208
S'\x1f\x85\xebQ\xb8\x1e\x1f\xc0'
p1134
tp1135
Rp1136
sg298
g204
(g208
S'\xcd\xcc\xcc\xcc\xcc\xcc\xfc\xbf'
p1137
tp1138
Rp1139
sg302
g204
(g208
S'\xc0\x1e\x85\xebQ\xb8\x1f@'
p1140
tp1141
Rp1142
sg306
g204
(g208
S'\x00H\xe1z\x14\xae\xd7\xbf'
p1143
tp1144
Rp1145
sa(dp1146
g203
g204
(g208
S'\xa4p=\n\xd7\xa3\xc0?'
p1147
tp1148
Rp1149
sg214
g204
(g208
S')\\\x8f\xc2\xf5(\xcc\xbf'
p1150
tp1151
Rp1152
sg218
g204
(g208
S'\x14\xaeG\xe1z\x14\x1e@'
p1153
tp1154
Rp1155
sg222
g204
(g208
S'\x00\x00\x00\x00\x00\x00\xe0\xbf'
p1156
tp1157
Rp1158
sg226
g204
(g208
S'\x1f\x85\xebQ\xb8\x1e\xe5?'
p1159
tp1160
Rp1161
sg230
g204
(g208
S'\xa4p=\n\xd7\xa3\xc0?'
p1162
tp1163
Rp1164
sg234
g204
(g208
S'333333\xc3\xbf'
p1165
tp1166
Rp1167
sg238
g204
(g208
S'\xe8Q\xb8\x1e\x85\xeb \xc0'
p1168
tp1169
Rp1170
sg242
g204
(g208
S'\x00\x9a\x99\x99\x99\x99\xc9\xbf'
p1171
tp1172
Rp1173
sg246
g204
(g208
S'\xa4p=\n\xd7\xa3\xc0?'
p1174
tp1175
Rp1176
sg250
g204
(g208
S'=\n\xd7\xa3p=\xe2\xbf'
p1177
tp1178
Rp1179
sg254
g204
(g208
S'\xaeG\xe1z\x14\xae\x16\xc0'
p1180
tp1181
Rp1182
sg258
g204
(g208
S'\xa4p=\n\xd7\xa3\xc0?'
p1183
tp1184
Rp1185
sg262
g204
(g208
S')\\\x8f\xc2\xf5(\xcc?'
p1186
tp1187
Rp1188
sg266
g204
(g208
S'\x9a\x99\x99\x99\x99\x99\x13@'
p1189
tp1190
Rp1191
sg270
g204
(g208
S'{\x14\xaeG\xe1z\xa4?'
p1192
tp1193
Rp1194
sg274
g204
(g208
S'fffff\xe6"@'
p1195
tp1196
Rp1197
sg278
g204
(g208
S'\x85\xebQ\xb8\x1e\x05"@'
p1198
tp1199
Rp1200
sg282
g204
(g208
S'{\x14\xaeG\xe1z\xa4?'
p1201
tp1202
Rp1203
sg286
g204
(g208
S'\n\xd7\xa3p=\n\x17\xc0'
p1204
tp1205
Rp1206
sg290
g204
(g208
S'fffff\xe6"\xc0'
p1207
tp1208
Rp1209
sg294
g204
(g208
S'333333"\xc0'
p1210
tp1211
Rp1212
sg298
g204
(g208
S'=\n\xd7\xa3p=\xe2\xbf'
p1213
tp1214
Rp1215
sg302
g204
(g208
S'H\xe1z\x14\xaeG!@'
p1216
tp1217
Rp1218
sg306
g204
(g208
S'\x00=\n\xd7\xa3p\xdd\xbf'
p1219
tp1220
Rp1221
sa(dp1222
g203
g204
(g208
S')\\\x8f\xc2\xf5(\xcc?'
p1223
tp1224
Rp1225
sg214
g204
(g208
S')\\\x8f\xc2\xf5(\xcc\xbf'
p1226
tp1227
Rp1228
sg218
g204
(g208
S'\xb8\x1e\x85\xebQ\xb8\x1d@'
p1229
tp1230
Rp1231
sg222
g204
(g208
S'\x00\x00\x00\x00\x00\x00\xe0\xbf'
p1232
tp1233
Rp1234
sg226
g204
(g208
S'\xd7\xa3p=\n\xd7\xd3?'
p1235
tp1236
Rp1237
sg230
g204
(g208
S'\xa4p=\n\xd7\xa3\xc0?'
p1238
tp1239
Rp1240
sg234
g204
(g208
S'333333\xc3\xbf'
p1241
tp1242
Rp1243
sg238
g204
(g208
S'\xe8Q\xb8\x1e\x85\xeb \xc0'
p1244
tp1245
Rp1246
sg242
g204
(g208
S'\x00\x9a\x99\x99\x99\x99\xc9\xbf'
p1247
tp1248
Rp1249
sg246
g204
(g208
S'\xa4p=\n\xd7\xa3\xc0?'
p1250
tp1251
Rp1252
sg250
g204
(g208
S'=\n\xd7\xa3p=\xe2\xbf'
p1253
tp1254
Rp1255
sg254
g204
(g208
S'\n\xd7\xa3p=\n\x17\xc0'
p1256
tp1257
Rp1258
sg258
g204
(g208
S'\xa4p=\n\xd7\xa3\xc0?'
p1259
tp1260
Rp1261
sg262
g204
(g208
S')\\\x8f\xc2\xf5(\xcc?'
p1262
tp1263
Rp1264
sg266
g204
(g208
S'\x9a\x99\x99\x99\x99\x99\x13@'
p1265
tp1266
Rp1267
sg270
g204
(g208
S'{\x14\xaeG\xe1z\xa4?'
p1268
tp1269
Rp1270
sg274
g204
(g208
S'fffff\xe6"@'
p1271
tp1272
Rp1273
sg278
g204
(g208
S'\\\x8f\xc2\xf5(\\(@'
p1274
tp1275
Rp1276
sg282
g204
(g208
S'{\x14\xaeG\xe1z\xa4?'
p1277
tp1278
Rp1279
sg286
g204
(g208
S'\xb8\x1e\x85\xebQ\xb8\x17\xc0'
p1280
tp1281
Rp1282
sg290
g204
(g208
S'\xe1z\x14\xaeG\xe1(\xc0'
p1283
tp1284
Rp1285
sg294
g204
(g208
S'333333"\xc0'
p1286
tp1287
Rp1288
sg298
g204
(g208
S'\x00\x00\x00\x00\x00\x00\xe8\xbf'
p1289
tp1290
Rp1291
sg302
g204
(g208
S'\x98\x99\x99\x99\x99\x19!@'
p1292
tp1293
Rp1294
sg306
g204
(g208
S'\x00=\n\xd7\xa3p\xdd\xbf'
p1295
tp1296
Rp1297
sa(dp1298
g203
g204
(g208
S')\\\x8f\xc2\xf5(\xcc?'
p1299
tp1300
Rp1301
sg214
g204
(g208
S')\\\x8f\xc2\xf5(\xcc\xbf'
p1302
tp1303
Rp1304
sg218
g204
(g208
S'\x14\xaeG\xe1z\x14\x1e@'
p1305
tp1306
Rp1307
sg222
g204
(g208
S'\x00\x00\x00\x00\x00\x00\xe0\xbf'
p1308
tp1309
Rp1310
sg226
g204
(g208
S'{\x14\xaeG\xe1z\xa4\xbf'
p1311
tp1312
Rp1313
sg230
g204
(g208
S'\xa4p=\n\xd7\xa3\xc0?'
p1314
tp1315
Rp1316
sg234
g204
(g208
S'333333\xc3\xbf'
p1317
tp1318
Rp1319
sg238
g204
(g208
S'\xe8Q\xb8\x1e\x85\xeb \xc0'
p1320
tp1321
Rp1322
sg242
g204
(g208
S'\x00\x9a\x99\x99\x99\x99\xc9\xbf'
p1323
tp1324
Rp1325
sg246
g204
(g208
S'\xa4p=\n\xd7\xa3\xc0?'
p1326
tp1327
Rp1328
sg250
g204
(g208
S'\xb8\x1e\x85\xebQ\xb8\xde\xbf'
p1329
tp1330
Rp1331
sg254
g204
(g208
S'\xb8\x1e\x85\xebQ\xb8\x17\xc0'
p1332
tp1333
Rp1334
sg258
g204
(g208
S'\xa4p=\n\xd7\xa3\xc0?'
p1335
tp1336
Rp1337
sg262
g204
(g208
S'\xd7\xa3p=\n\xd7\xd3?'
p1338
tp1339
Rp1340
sg266
g204
(g208
S'\x9a\x99\x99\x99\x99\x99\x13@'
p1341
tp1342
Rp1343
sg270
g204
(g208
S'{\x14\xaeG\xe1z\xa4?'
p1344
tp1345
Rp1346
sg274
g204
(g208
S'fffff\xe6"@'
p1347
tp1348
Rp1349
sg278
g204
(g208
S'\xaeG\xe1z\x14\xae.@'
p1350
tp1351
Rp1352
sg282
g204
(g208
S'{\x14\xaeG\xe1z\xa4?'
p1353
tp1354
Rp1355
sg286
g204
(g208
S'\x14\xaeG\xe1z\x14\x18\xc0'
p1356
tp1357
Rp1358
sg290
g204
(g208
S'\\\x8f\xc2\xf5(\xdc.\xc0'
p1359
tp1360
Rp1361
sg294
g204
(g208
S'\x85\xebQ\xb8\x1e\x05"\xc0'
p1362
tp1363
Rp1364
sg298
g204
(g208
S'\x9a\x99\x99\x99\x99\x99\xf1\xbf'
p1365
tp1366
Rp1367
sg302
g204
(g208
S'H\xe1z\x14\xaeG!@'
p1368
tp1369
Rp1370
sg306
g204
(g208
S'\x00=\n\xd7\xa3p\xdd\xbf'
p1371
tp1372
Rp1373
sa(dp1374
g203
g204
(g208
S')\\\x8f\xc2\xf5(\xcc?'
p1375
tp1376
Rp1377
sg214
g204
(g208
S')\\\x8f\xc2\xf5(\xcc\xbf'
p1378
tp1379
Rp1380
sg218
g204
(g208
S')\\\x8f\xc2\xf5(\x19@'
p1381
tp1382
Rp1383
sg222
g204
(g208
S'\x00\x00\x00\x00\x00\x00\xe0\xbf'
p1384
tp1385
Rp1386
sg226
g204
(g208
S')\\\x8f\xc2\xf5(\xf0\xbf'
p1387
tp1388
Rp1389
sg230
g204
(g208
S'\xa4p=\n\xd7\xa3\xc0?'
p1390
tp1391
Rp1392
sg234
g204
(g208
S'333333\xc3\xbf'
p1393
tp1394
Rp1395
sg238
g204
(g208
S'\xe8Q\xb8\x1e\x85\xeb \xc0'
p1396
tp1397
Rp1398
sg242
g204
(g208
S'\x00\x9a\x99\x99\x99\x99\xc9\xbf'
p1399
tp1400
Rp1401
sg246
g204
(g208
S')\\\x8f\xc2\xf5(\xcc?'
p1402
tp1403
Rp1404
sg250
g204
(g208
S'=\n\xd7\xa3p=\xe2\xbf'
p1405
tp1406
Rp1407
sg254
g204
(g208
S'\xb8\x1e\x85\xebQ\xb8\x17\xc0'
p1408
tp1409
Rp1410
sg258
g204
(g208
S'\xa4p=\n\xd7\xa3\xc0?'
p1411
tp1412
Rp1413
sg262
g204
(g208
S'\x9a\x99\x99\x99\x99\x99\xd9?'
p1414
tp1415
Rp1416
sg266
g204
(g208
S'=\n\xd7\xa3p=\x13@'
p1417
tp1418
Rp1419
sg270
g204
(g208
S'{\x14\xaeG\xe1z\xa4\xbf'
p1420
tp1421
Rp1422
sg274
g204
(g208
S'fffff\xe6"@'
p1423
tp1424
Rp1425
sg278
g204
(g208
S'\xecQ\xb8\x1e\x85k2@'
p1426
tp1427
Rp1428
sg282
g204
(g208
S'\xa4p=\n\xd7\xa3\xc0?'
p1429
tp1430
Rp1431
sg286
g204
(g208
S'R\xb8\x1e\x85\xebQ\x1c\xc0'
p1432
tp1433
Rp1434
sg290
g204
(g208
S'\xecQ\xb8\x1e\x85k2\xc0'
p1435
tp1436
Rp1437
sg294
g204
(g208
S'\x85\xebQ\xb8\x1e\x05"\xc0'
p1438
tp1439
Rp1440
sg298
g204
(g208
S'\\\x8f\xc2\xf5(\\\xfb\xbf'
p1441
tp1442
Rp1443
sg302
g204
(g208
S'H\xe1z\x14\xaeG!@'
p1444
tp1445
Rp1446
sg306
g204
(g208
S'\x00H\xe1z\x14\xae\xd7\xbf'
p1447
tp1448
Rp1449
sa(dp1450
g203
g204
(g208
S')\\\x8f\xc2\xf5(\xcc?'
p1451
tp1452
Rp1453
sg214
g204
(g208
S')\\\x8f\xc2\xf5(\xcc\xbf'
p1454
tp1455
Rp1456
sg218
g204
(g208
S'\n\xd7\xa3p=\n\x17@'
p1457
tp1458
Rp1459
sg222
g204
(g208
S'\x00\x00\x00\x00\x00\x00\xe0\xbf'
p1460
tp1461
Rp1462
sg226
g204
(g208
S'\x8f\xc2\xf5(\\\x8f\x00\xc0'
p1463
tp1464
Rp1465
sg230
g204
(g208
S'\xa4p=\n\xd7\xa3\xc0?'
p1466
tp1467
Rp1468
sg234
g204
(g208
S'333333\xc3\xbf'
p1469
tp1470
Rp1471
sg238
g204
(g208
S' \x85\xebQ\xb8\x9e$\xc0'
p1472
tp1473
Rp1474
sg242
g204
(g208
S'\x00\xc3\xf5(\\\x8f\xd2\xbf'
p1475
tp1476
Rp1477
sg246
g204
(g208
S')\\\x8f\xc2\xf5(\xcc?'
p1478
tp1479
Rp1480
sg250
g204
(g208
S'=\n\xd7\xa3p=\xe2\xbf'
p1481
tp1482
Rp1483
sg254
g204
(g208
S'q=\n\xd7\xa3p\x18\xc0'
p1484
tp1485
Rp1486
sg258
g204
(g208
S'\xa4p=\n\xd7\xa3\xc0?'
p1487
tp1488
Rp1489
sg262
g204
(g208
S'\xd7\xa3p=\n\xd7\xd3\xbf'
p1490
tp1491
Rp1492
sg266
g204
(g208
S'\x9a\x99\x99\x99\x99\x99\x13@'
p1493
tp1494
Rp1495
sg270
g204
(g208
S'{\x14\xaeG\xe1z\xa4?'
p1496
tp1497
Rp1498
sg274
g204
(g208
S"\xa4p=\n\xd7\xa3'@"
p1499
tp1500
Rp1501
sg278
g204
(g208
S'\xa4p=\n\xd7\xa3\x1c@'
p1502
tp1503
Rp1504
sg282
g204
(g208
S')\\\x8f\xc2\xf5(\xcc?'
p1505
tp1506
Rp1507
sg286
g204
(g208
S'\x14\xaeG\xe1z\x14 \xc0'
p1508
tp1509
Rp1510
sg290
g204
(g208
S'ffffff\x1e\xc0'
p1511
tp1512
Rp1513
sg294
g204
(g208
S'\\\x8f\xc2\xf5(\\%\xc0'
p1514
tp1515
Rp1516
sg298
g204
(g208
S'333333\x01\xc0'
p1517
tp1518
Rp1519
sg302
g204
(g208
S'P\xb8\x1e\x85\xebQ%@'
p1520
tp1521
Rp1522
sg306
g204
(g208
S'\x00H\xe1z\x14\xae\xd7\xbf'
p1523
tp1524
Rp1525
sa(dp1526
g203
g204
(g208
S'\xa4p=\n\xd7\xa3\xc0?'
p1527
tp1528
Rp1529
sg214
g204
(g208
S')\\\x8f\xc2\xf5(\xcc\xbf'
p1530
tp1531
Rp1532
sg218
g204
(g208
S'\xb8\x1e\x85\xebQ\xb8\x1d@'
p1533
tp1534
Rp1535
sg222
g204
(g208
S'\x00{\x14\xaeG\xe1\xca\xbf'
p1536
tp1537
Rp1538
sg226
g204
(g208
S'\x9a\x99\x99\x99\x99\x99\xd9?'
p1539
tp1540
Rp1541
sg230
g204
(g208
S'\xa4p=\n\xd7\xa3\xc0?'
p1542
tp1543
Rp1544
sg234
g204
(g208
S'333333\xc3\xbf'
p1545
tp1546
Rp1547
sg238
g204
(g208
S'033333&\xc0'
p1548
tp1549
Rp1550
sg242
g204
(g208
S'\x00\x9a\x99\x99\x99\x99\xc9\xbf'
p1551
tp1552
Rp1553
sg246
g204
(g208
S')\\\x8f\xc2\xf5(\xcc?'
p1554
tp1555
Rp1556
sg250
g204
(g208
S'\x00\x00\x00\x00\x00\x00\xe8\xbf'
p1557
tp1558
Rp1559
sg254
g204
(g208
S'\x14\xaeG\xe1z\x14\x18\xc0'
p1560
tp1561
Rp1562
sg258
g204
(g208
S'\xa4p=\n\xd7\xa3\xc0?'
p1563
tp1564
Rp1565
sg262
g204
(g208
S'{\x14\xaeG\xe1z\xa4?'
p1566
tp1567
Rp1568
sg266
g204
(g208
S'\x9a\x99\x99\x99\x99\x99\x13@'
p1569
tp1570
Rp1571
sg270
g204
(g208
S'{\x14\xaeG\xe1z\xa4\xbf'
p1572
tp1573
Rp1574
sg274
g204
(g208
S'=\n\xd7\xa3p=)@'
p1575
tp1576
Rp1577
sg278
g204
(g208
S'\x85\xebQ\xb8\x1e\x05"@'
p1578
tp1579
Rp1580
sg282
g204
(g208
S')\\\x8f\xc2\xf5(\xcc?'
p1581
tp1582
Rp1583
sg286
g204
(g208
S'\x14\xaeG\xe1z\x14\x18\xc0'
p1584
tp1585
Rp1586
sg290
g204
(g208
S'\xcd\xcc\xcc\xcc\xcc\xcc \xc0'
p1587
tp1588
Rp1589
sg294
g204
(g208
S"{\x14\xaeG\xe1z'\xc0"
p1590
tp1591
Rp1592
sg298
g204
(g208
S'\x1f\x85\xebQ\xb8\x1e\xe5\xbf'
p1593
tp1594
Rp1595
sg302
g204
(g208
S"\xc0\xf5(\\\x8fB'@"
p1596
tp1597
Rp1598
sg306
g204
(g208
S'\x00H\xe1z\x14\xae\xd7\xbf'
p1599
tp1600
Rp1601
sa(dp1602
g203
g204
(g208
S')\\\x8f\xc2\xf5(\xcc?'
p1603
tp1604
Rp1605
sg214
g204
(g208
S')\\\x8f\xc2\xf5(\xcc\xbf'
p1606
tp1607
Rp1608
sg218
g204
(g208
S'\xb8\x1e\x85\xebQ\xb8\x1d@'
p1609
tp1610
Rp1611
sg222
g204
(g208
S'\x00\x00\x00\x00\x00\x00\xe0\xbf'
p1612
tp1613
Rp1614
sg226
g204
(g208
S'\x9a\x99\x99\x99\x99\x99\xd9?'
p1615
tp1616
Rp1617
sg230
g204
(g208
S'\xa4p=\n\xd7\xa3\xc0?'
p1618
tp1619
Rp1620
sg234
g204
(g208
S')\\\x8f\xc2\xf5(\xdc\xbf'
p1621
tp1622
Rp1623
sg238
g204
(g208
S'033333&\xc0'
p1624
tp1625
Rp1626
sg242
g204
(g208
S'\x00\x9a\x99\x99\x99\x99\xc9\xbf'
p1627
tp1628
Rp1629
sg246
g204
(g208
S')\\\x8f\xc2\xf5(\xcc?'
p1630
tp1631
Rp1632
sg250
g204
(g208
S'\x1f\x85\xebQ\xb8\x1e\xe5\xbf'
p1633
tp1634
Rp1635
sg254
g204
(g208
S'\xb8\x1e\x85\xebQ\xb8\x17\xc0'
p1636
tp1637
Rp1638
sg258
g204
(g208
S'\xa4p=\n\xd7\xa3\xc0?'
p1639
tp1640
Rp1641
sg262
g204
(g208
S'{\x14\xaeG\xe1z\xa4\xbf'
p1642
tp1643
Rp1644
sg266
g204
(g208
S'\xf6(\\\x8f\xc2\xf5\x13@'
p1645
tp1646
Rp1647
sg270
g204
(g208
S'{\x14\xaeG\xe1z\xa4\xbf'
p1648
tp1649
Rp1650
sg274
g204
(g208
S'=\n\xd7\xa3p=)@'
p1651
tp1652
Rp1653
sg278
g204
(g208
S'\\\x8f\xc2\xf5(\\(@'
p1654
tp1655
Rp1656
sg282
g204
(g208
S')\\\x8f\xc2\xf5(\xcc?'
p1657
tp1658
Rp1659
sg286
g204
(g208
S'\x14\xaeG\xe1z\x14\x18\xc0'
p1660
tp1661
Rp1662
sg290
g204
(g208
S'\xe1z\x14\xaeG\xe1(\xc0'
p1663
tp1664
Rp1665
sg294
g204
(g208
S"{\x14\xaeG\xe1z'\xc0"
p1666
tp1667
Rp1668
sg298
g204
(g208
S'\x1f\x85\xebQ\xb8\x1e\xe5\xbf'
p1669
tp1670
Rp1671
sg302
g204
(g208
S"\xc0\xf5(\\\x8fB'@"
p1672
tp1673
Rp1674
sg306
g204
(g208
S'\x00H\xe1z\x14\xae\xd7\xbf'
p1675
tp1676
Rp1677
sa(dp1678
g203
g204
(g208
S')\\\x8f\xc2\xf5(\xcc?'
p1679
tp1680
Rp1681
sg214
g204
(g208
S')\\\x8f\xc2\xf5(\xcc\xbf'
p1682
tp1683
Rp1684
sg218
g204
(g208
S'\xb8\x1e\x85\xebQ\xb8\x1d@'
p1685
tp1686
Rp1687
sg222
g204
(g208
S'\x00\x00\x00\x00\x00\x00\xe0\xbf'
p1688
tp1689
Rp1690
sg226
g204
(g208
S'\xa4p=\n\xd7\xa3\xc0?'
p1691
tp1692
Rp1693
sg230
g204
(g208
S'\xa4p=\n\xd7\xa3\xc0?'
p1694
tp1695
Rp1696
sg234
g204
(g208
S'333333\xc3?'
p1697
tp1698
Rp1699
sg238
g204
(g208
S'033333&\xc0'
p1700
tp1701
Rp1702
sg242
g204
(g208
S'\x00\x9a\x99\x99\x99\x99\xc9\xbf'
p1703
tp1704
Rp1705
sg246
g204
(g208
S')\\\x8f\xc2\xf5(\xcc?'
p1706
tp1707
Rp1708
sg250
g204
(g208
S'\x1f\x85\xebQ\xb8\x1e\xe5\xbf'
p1709
tp1710
Rp1711
sg254
g204
(g208
S'\xb8\x1e\x85\xebQ\xb8\x17\xc0'
p1712
tp1713
Rp1714
sg258
g204
(g208
S'\xa4p=\n\xd7\xa3\xc0?'
p1715
tp1716
Rp1717
sg262
g204
(g208
S'\xa4p=\n\xd7\xa3\xc0?'
p1718
tp1719
Rp1720
sg266
g204
(g208
S'\x9a\x99\x99\x99\x99\x99\x13@'
p1721
tp1722
Rp1723
sg270
g204
(g208
S'{\x14\xaeG\xe1z\xa4\xbf'
p1724
tp1725
Rp1726
sg274
g204
(g208
S'=\n\xd7\xa3p=)@'
p1727
tp1728
Rp1729
sg278
g204
(g208
S'\x00\x00\x00\x00\x00\x80.@'
p1730
tp1731
Rp1732
sg282
g204
(g208
S')\\\x8f\xc2\xf5(\xcc?'
p1733
tp1734
Rp1735
sg286
g204
(g208
S'\x14\xaeG\xe1z\x14\x18\xc0'
p1736
tp1737
Rp1738
sg290
g204
(g208
S'\xaeG\xe1z\x14\xae.\xc0'
p1739
tp1740
Rp1741
sg294
g204
(g208
S"\xcd\xcc\xcc\xcc\xccL'\xc0"
p1742
tp1743
Rp1744
sg298
g204
(g208
S')\\\x8f\xc2\xf5(\xf0\xbf'
p1745
tp1746
Rp1747
sg302
g204
(g208
S"\xc0\xf5(\\\x8fB'@"
p1748
tp1749
Rp1750
sg306
g204
(g208
S'\x00H\xe1z\x14\xae\xd7\xbf'
p1751
tp1752
Rp1753
sa(dp1754
g203
g204
(g208
S')\\\x8f\xc2\xf5(\xcc?'
p1755
tp1756
Rp1757
sg214
g204
(g208
S')\\\x8f\xc2\xf5(\xcc\xbf'
p1758
tp1759
Rp1760
sg218
g204
(g208
S'\x8f\xc2\xf5(\\\x8f\x1a@'
p1761
tp1762
Rp1763
sg222
g204
(g208
S'\x00{\x14\xaeG\xe1\xca\xbf'
p1764
tp1765
Rp1766
sg226
g204
(g208
S'\x00\x00\x00\x00\x00\x00\xe8\xbf'
p1767
tp1768
Rp1769
sg230
g204
(g208
S'\xa4p=\n\xd7\xa3\xc0?'
p1770
tp1771
Rp1772
sg234
g204
(g208
S'333333\xc3\xbf'
p1773
tp1774
Rp1775
sg238
g204
(g208
S'033333&\xc0'
p1776
tp1777
Rp1778
sg242
g204
(g208
S'\x00\x9a\x99\x99\x99\x99\xc9\xbf'
p1779
tp1780
Rp1781
sg246
g204
(g208
S')\\\x8f\xc2\xf5(\xcc?'
p1782
tp1783
Rp1784
sg250
g204
(g208
S'\x1f\x85\xebQ\xb8\x1e\xe5\xbf'
p1785
tp1786
Rp1787
sg254
g204
(g208
S'\xb8\x1e\x85\xebQ\xb8\x17\xc0'
p1788
tp1789
Rp1790
sg258
g204
(g208
S'\xa4p=\n\xd7\xa3\xc0?'
p1791
tp1792
Rp1793
sg262
g204
(g208
S')\\\x8f\xc2\xf5(\xcc?'
p1794
tp1795
Rp1796
sg266
g204
(g208
S'=\n\xd7\xa3p=\x13@'
p1797
tp1798
Rp1799
sg270
g204
(g208
S'\xa4p=\n\xd7\xa3\xc0\xbf'
p1800
tp1801
Rp1802
sg274
g204
(g208
S'=\n\xd7\xa3p=)@'
p1803
tp1804
Rp1805
sg278
g204
(g208
S'\xecQ\xb8\x1e\x85k2@'
p1806
tp1807
Rp1808
sg282
g204
(g208
S')\\\x8f\xc2\xf5(\xcc?'
p1809
tp1810
Rp1811
sg286
g204
(g208
S'\x8f\xc2\xf5(\\\x8f\x1a\xc0'
p1812
tp1813
Rp1814
sg290
g204
(g208
S'\xecQ\xb8\x1e\x85k2\xc0'
p1815
tp1816
Rp1817
sg294
g204
(g208
S"\xcd\xcc\xcc\xcc\xccL'\xc0"
p1818
tp1819
Rp1820
sg298
g204
(g208
S'333333\xf7\xbf'
p1821
tp1822
Rp1823
sg302
g204
(g208
S"\xc0\xf5(\\\x8fB'@"
p1824
tp1825
Rp1826
sg306
g204
(g208
S'\x00H\xe1z\x14\xae\xd7\xbf'
p1827
tp1828
Rp1829
sa(dp1830
g203
g204
(g208
S')\\\x8f\xc2\xf5(\xcc?'
p1831
tp1832
Rp1833
sg214
g204
(g208
S')\\\x8f\xc2\xf5(\xcc\xbf'
p1834
tp1835
Rp1836
sg218
g204
(g208
S'\n\xd7\xa3p=\n\x17@'
p1837
tp1838
Rp1839
sg222
g204
(g208
S'\x00\x00\x00\x00\x00\x00\xe0\xbf'
p1840
tp1841
Rp1842
sg226
g204
(g208
S'\xa4p=\n\xd7\xa3\x02\xc0'
p1843
tp1844
Rp1845
sg230
g204
(g208
S'\xa4p=\n\xd7\xa3\xc0?'
p1846
tp1847
Rp1848
sg234
g204
(g208
S'333333\xc3\xbf'
p1849
tp1850
Rp1851
sg238
g204
(g208
S'@\n\xd7\xa3p=*\xc0'
p1852
tp1853
Rp1854
sg242
g204
(g208
S'\x00\xc3\xf5(\\\x8f\xd2\xbf'
p1855
tp1856
Rp1857
sg246
g204
(g208
S')\\\x8f\xc2\xf5(\xcc?'
p1858
tp1859
Rp1860
sg250
g204
(g208
S'\x00\x00\x00\x00\x00\x00\xe8\xbf'
p1861
tp1862
Rp1863
sg254
g204
(g208
S'q=\n\xd7\xa3p\x18\xc0'
p1864
tp1865
Rp1866
sg258
g204
(g208
S'\xa4p=\n\xd7\xa3\xc0?'
p1867
tp1868
Rp1869
sg262
g204
(g208
S'\xa4p=\n\xd7\xa3\xc0?'
p1870
tp1871
Rp1872
sg266
g204
(g208
S'=\n\xd7\xa3p=\x13@'
p1873
tp1874
Rp1875
sg270
g204
(g208
S'{\x14\xaeG\xe1z\xa4\xbf'
p1876
tp1877
Rp1878
sg274
g204
(g208
S'{\x14\xaeG\xe1\xfa-@'
p1879
tp1880
Rp1881
sg278
g204
(g208
S'\x00\x00\x00\x00\x00\x00\x1d@'
p1882
tp1883
Rp1884
sg282
g204
(g208
S')\\\x8f\xc2\xf5(\xcc?'
p1885
tp1886
Rp1887
sg286
g204
(g208
S'\x14\xaeG\xe1z\x14\x1e\xc0'
p1888
tp1889
Rp1890
sg290
g204
(g208
S'\xb8\x1e\x85\xebQ\xb8\x1d\xc0'
p1891
tp1892
Rp1893
sg294
g204
(g208
S'{\x14\xaeG\xe1\xfa*\xc0'
p1894
tp1895
Rp1896
sg298
g204
(g208
S'333333\x01\xc0'
p1897
tp1898
Rp1899
sg302
g204
(g208
S'p=\n\xd7\xa3\xf0*@'
p1900
tp1901
Rp1902
sg306
g204
(g208
S'\x00H\xe1z\x14\xae\xd7\xbf'
p1903
tp1904
Rp1905
sa(dp1906
g203
g204
(g208
S')\\\x8f\xc2\xf5(\xcc?'
p1907
tp1908
Rp1909
sg214
g204
(g208
S')\\\x8f\xc2\xf5(\xcc\xbf'
p1910
tp1911
Rp1912
sg218
g204
(g208
S'\x1f\x85\xebQ\xb8\x1e\x1f@'
p1913
tp1914
Rp1915
sg222
g204
(g208
S'\x00\x00\x00\x00\x00\x00\xe0\xbf'
p1916
tp1917
Rp1918
sg226
g204
(g208
S'\xe1z\x14\xaeG\xe1\xea?'
p1919
tp1920
Rp1921
sg230
g204
(g208
S'\xa4p=\n\xd7\xa3\xc0?'
p1922
tp1923
Rp1924
sg234
g204
(g208
S'333333\xc3\xbf'
p1925
tp1926
Rp1927
sg238
g204
(g208
S'\xb0G\xe1z\x14.,\xc0'
p1928
tp1929
Rp1930
sg242
g204
(g208
S'\x00\x9a\x99\x99\x99\x99\xc9\xbf'
p1931
tp1932
Rp1933
sg246
g204
(g208
S'{\x14\xaeG\xe1z\xa4\xbf'
p1934
tp1935
Rp1936
sg250
g204
(g208
S'\x1f\x85\xebQ\xb8\x1e\xe5\xbf'
p1937
tp1938
Rp1939
sg254
g204
(g208
S'\xb8\x1e\x85\xebQ\xb8\x17\xc0'
p1940
tp1941
Rp1942
sg258
g204
(g208
S'\xa4p=\n\xd7\xa3\xc0?'
p1943
tp1944
Rp1945
sg262
g204
(g208
S')\\\x8f\xc2\xf5(\xcc\xbf'
p1946
tp1947
Rp1948
sg266
g204
(g208
S'\xf6(\\\x8f\xc2\xf5\x13@'
p1949
tp1950
Rp1951
sg270
g204
(g208
S')\\\x8f\xc2\xf5(\xcc?'
p1952
tp1953
Rp1954
sg274
g204
(g208
S'333333/@'
p1955
tp1956
Rp1957
sg278
g204
(g208
S'\xd7\xa3p=\n\xd7!@'
p1958
tp1959
Rp1960
sg282
g204
(g208
S'\xa4p=\n\xd7\xa3\xc0?'
p1961
tp1962
Rp1963
sg286
g204
(g208
S'\xaeG\xe1z\x14\xae\x16\xc0'
p1964
tp1965
Rp1966
sg290
g204
(g208
S'\xf6(\\\x8f\xc2\xf5 \xc0'
p1967
tp1968
Rp1969
sg294
g204
(g208
S'\xf6(\\\x8f\xc2u-\xc0'
p1970
tp1971
Rp1972
sg298
g204
(g208
S'\xd7\xa3p=\n\xd7\xd3\xbf'
p1973
tp1974
Rp1975
sg302
g204
(g208
S'03333\xb3,@'
p1976
tp1977
Rp1978
sg306
g204
(g208
S'\x00=\n\xd7\xa3p\xdd\xbf'
p1979
tp1980
Rp1981
sa(dp1982
g203
g204
(g208
S'\xa4p=\n\xd7\xa3\xc0?'
p1983
tp1984
Rp1985
sg214
g204
(g208
S')\\\x8f\xc2\xf5(\xcc\xbf'
p1986
tp1987
Rp1988
sg218
g204
(g208
S'\xc3\xf5(\\\x8f\xc2\x1e@'
p1989
tp1990
Rp1991
sg222
g204
(g208
S'\x00{\x14\xaeG\xe1\xca\xbf'
p1992
tp1993
Rp1994
sg226
g204
(g208
S'\x1f\x85\xebQ\xb8\x1e\xe5?'
p1995
tp1996
Rp1997
sg230
g204
(g208
S'\xa4p=\n\xd7\xa3\xc0?'
p1998
tp1999
Rp2000
sg234
g204
(g208
S'333333\xc3\xbf'
p2001
tp2002
Rp2003
sg238
g204
(g208
S'\xb0G\xe1z\x14.,\xc0'
p2004
tp2005
Rp2006
sg242
g204
(g208
S'\x00\x9a\x99\x99\x99\x99\xc9\xbf'
p2007
tp2008
Rp2009
sg246
g204
(g208
S'{\x14\xaeG\xe1z\xa4\xbf'
p2010
tp2011
Rp2012
sg250
g204
(g208
S'\x00\x00\x00\x00\x00\x00\xe8\xbf'
p2013
tp2014
Rp2015
sg254
g204
(g208
S'\xb8\x1e\x85\xebQ\xb8\x17\xc0'
p2016
tp2017
Rp2018
sg258
g204
(g208
S'\xa4p=\n\xd7\xa3\xc0?'
p2019
tp2020
Rp2021
sg262
g204
(g208
S'\xa4p=\n\xd7\xa3\xc0\xbf'
p2022
tp2023
Rp2024
sg266
g204
(g208
S'\x9a\x99\x99\x99\x99\x99\x13@'
p2025
tp2026
Rp2027
sg270
g204
(g208
S')\\\x8f\xc2\xf5(\xcc?'
p2028
tp2029
Rp2030
sg274
g204
(g208
S'333333/@'
p2031
tp2032
Rp2033
sg278
g204
(g208
S'\\\x8f\xc2\xf5(\\(@'
p2034
tp2035
Rp2036
sg282
g204
(g208
S'\xa4p=\n\xd7\xa3\xc0?'
p2037
tp2038
Rp2039
sg286
g204
(g208
S'\xaeG\xe1z\x14\xae\x16\xc0'
p2040
tp2041
Rp2042
sg290
g204
(g208
S'\x8f\xc2\xf5(\\\x0f)\xc0'
p2043
tp2044
Rp2045
sg294
g204
(g208
S'\xf6(\\\x8f\xc2u-\xc0'
p2046
tp2047
Rp2048
sg298
g204
(g208
S'\xb8\x1e\x85\xebQ\xb8\xde\xbf'
p2049
tp2050
Rp2051
sg302
g204
(g208
S'03333\xb3,@'
p2052
tp2053
Rp2054
sg306
g204
(g208
S'\x00=\n\xd7\xa3p\xdd\xbf'
p2055
tp2056
Rp2057
sa(dp2058
g203
g204
(g208
S')\\\x8f\xc2\xf5(\xcc?'
p2059
tp2060
Rp2061
sg214
g204
(g208
S')\\\x8f\xc2\xf5(\xcc\xbf'
p2062
tp2063
Rp2064
sg218
g204
(g208
S'\xc3\xf5(\\\x8f\xc2\x1e@'
p2065
tp2066
Rp2067
sg222
g204
(g208
S'\x00\x00\x00\x00\x00\x00\xe0\xbf'
p2068
tp2069
Rp2070
sg226
g204
(g208
S'=\n\xd7\xa3p=\xe2?'
p2071
tp2072
Rp2073
sg230
g204
(g208
S'\xa4p=\n\xd7\xa3\xc0?'
p2074
tp2075
Rp2076
sg234
g204
(g208
S'333333\xc3\xbf'
p2077
tp2078
Rp2079
sg238
g204
(g208
S'\xb0G\xe1z\x14.,\xc0'
p2080
tp2081
Rp2082
sg242
g204
(g208
S'\x00\x9a\x99\x99\x99\x99\xc9\xbf'
p2083
tp2084
Rp2085
sg246
g204
(g208
S'{\x14\xaeG\xe1z\xa4\xbf'
p2086
tp2087
Rp2088
sg250
g204
(g208
S'\x00\x00\x00\x00\x00\x00\xe8\xbf'
p2089
tp2090
Rp2091
sg254
g204
(g208
S'\xb8\x1e\x85\xebQ\xb8\x17\xc0'
p2092
tp2093
Rp2094
sg258
g204
(g208
S'\xa4p=\n\xd7\xa3\xc0?'
p2095
tp2096
Rp2097
sg262
g204
(g208
S'\xa4p=\n\xd7\xa3\xc0\xbf'
p2098
tp2099
Rp2100
sg266
g204
(g208
S'\x9a\x99\x99\x99\x99\x99\x13@'
p2101
tp2102
Rp2103
sg270
g204
(g208
S'\xa4p=\n\xd7\xa3\xc0?'
p2104
tp2105
Rp2106
sg274
g204
(g208
S'333333/@'
p2107
tp2108
Rp2109
sg278
g204
(g208
S'\x00\x00\x00\x00\x00\x80.@'
p2110
tp2111
Rp2112
sg282
g204
(g208
S')\\\x8f\xc2\xf5(\xcc?'
p2113
tp2114
Rp2115
sg286
g204
(g208
S'\n\xd7\xa3p=\n\x17\xc0'
p2116
tp2117
Rp2118
sg290
g204
(g208
S'\xaeG\xe1z\x14\xae.\xc0'
p2119
tp2120
Rp2121
sg294
g204
(g208
S'\xf6(\\\x8f\xc2u-\xc0'
p2122
tp2123
Rp2124
sg298
g204
(g208
S'=\n\xd7\xa3p=\xe2\xbf'
p2125
tp2126
Rp2127
sg302
g204
(g208
S'03333\xb3,@'
p2128
tp2129
Rp2130
sg306
g204
(g208
S'\x00H\xe1z\x14\xae\xd7\xbf'
p2131
tp2132
Rp2133
sa(dp2134
g203
g204
(g208
S')\\\x8f\xc2\xf5(\xcc?'
p2135
tp2136
Rp2137
sg214
g204
(g208
S')\\\x8f\xc2\xf5(\xcc\xbf'
p2138
tp2139
Rp2140
sg218
g204
(g208
S'\xc3\xf5(\\\x8f\xc2\x1e@'
p2141
tp2142
Rp2143
sg222
g204
(g208
S'\x00\x00\x00\x00\x00\x00\xe0\xbf'
p2144
tp2145
Rp2146
sg226
g204
(g208
S'\xa4p=\n\xd7\xa3\xc0?'
p2147
tp2148
Rp2149
sg230
g204
(g208
S'\xa4p=\n\xd7\xa3\xc0?'
p2150
tp2151
Rp2152
sg234
g204
(g208
S'333333\xc3\xbf'
p2153
tp2154
Rp2155
sg238
g204
(g208
S'\xb0G\xe1z\x14.,\xc0'
p2156
tp2157
Rp2158
sg242
g204
(g208
S'\x00\x9a\x99\x99\x99\x99\xc9\xbf'
p2159
tp2160
Rp2161
sg246
g204
(g208
S'{\x14\xaeG\xe1z\xa4\xbf'
p2162
tp2163
Rp2164
sg250
g204
(g208
S'\x00\x00\x00\x00\x00\x00\xe8\xbf'
p2165
tp2166
Rp2167
sg254
g204
(g208
S'\xb8\x1e\x85\xebQ\xb8\x17\xc0'
p2168
tp2169
Rp2170
sg258
g204
(g208
S'\xa4p=\n\xd7\xa3\xc0?'
p2171
tp2172
Rp2173
sg262
g204
(g208
S'{\x14\xaeG\xe1z\xa4?'
p2174
tp2175
Rp2176
sg266
g204
(g208
S'\x9a\x99\x99\x99\x99\x99\x13@'
p2177
tp2178
Rp2179
sg270
g204
(g208
S'\xa4p=\n\xd7\xa3\xc0?'
p2180
tp2181
Rp2182
sg274
g204
(g208
S'333333/@'
p2183
tp2184
Rp2185
sg278
g204
(g208
S'\x14\xaeG\xe1zT2@'
p2186
tp2187
Rp2188
sg282
g204
(g208
S')\\\x8f\xc2\xf5(\xcc?'
p2189
tp2190
Rp2191
sg286
g204
(g208
S'\xb8\x1e\x85\xebQ\xb8\x17\xc0'
p2192
tp2193
Rp2194
sg290
g204
(g208
S'\xecQ\xb8\x1e\x85k2\xc0'
p2195
tp2196
Rp2197
sg294
g204
(g208
S'\xf6(\\\x8f\xc2u-\xc0'
p2198
tp2199
Rp2200
sg298
g204
(g208
S'q=\n\xd7\xa3p\xed\xbf'
p2201
tp2202
Rp2203
sg302
g204
(g208
S'03333\xb3,@'
p2204
tp2205
Rp2206
sg306
g204
(g208
S'\x00H\xe1z\x14\xae\xd7\xbf'
p2207
tp2208
Rp2209
sa(dp2210
g203
g204
(g208
S'\xa4p=\n\xd7\xa3\xc0?'
p2211
tp2212
Rp2213
sg214
g204
(g208
S')\\\x8f\xc2\xf5(\xcc\xbf'
p2214
tp2215
Rp2216
sg218
g204
(g208
S'R\xb8\x1e\x85\xebQ\x1c@'
p2217
tp2218
Rp2219
sg222
g204
(g208
S'\x00\x00\x00\x00\x00\x00\xe0\xbf'
p2220
tp2221
Rp2222
sg226
g204
(g208
S'\xd7\xa3p=\n\xd7\xd3\xbf'
p2223
tp2224
Rp2225
sg230
g204
(g208
S'\xa4p=\n\xd7\xa3\xc0?'
p2226
tp2227
Rp2228
sg234
g204
(g208
S')\\\x8f\xc2\xf5(\xdc\xbf'
p2229
tp2230
Rp2231
sg238
g204
(g208
S'\\\x8f\xc2\xf5(\x1c0\xc0'
p2232
tp2233
Rp2234
sg242
g204
(g208
S'\x00\x9a\x99\x99\x99\x99\xc9\xbf'
p2235
tp2236
Rp2237
sg246
g204
(g208
S'\xa4p=\n\xd7\xa3\xc0?'
p2238
tp2239
Rp2240
sg250
g204
(g208
S'\x00\x00\x00\x00\x00\x00\xe8\xbf'
p2241
tp2242
Rp2243
sg254
g204
(g208
S'\xb8\x1e\x85\xebQ\xb8\x17\xc0'
p2244
tp2245
Rp2246
sg258
g204
(g208
S'\xa4p=\n\xd7\xa3\xc0?'
p2247
tp2248
Rp2249
sg262
g204
(g208
S'{\x14\xaeG\xe1z\xa4?'
p2250
tp2251
Rp2252
sg266
g204
(g208
S'\x9a\x99\x99\x99\x99\x99\x13@'
p2253
tp2254
Rp2255
sg270
g204
(g208
S'\xa4p=\n\xd7\xa3\xc0?'
p2256
tp2257
Rp2258
sg274
g204
(g208
S'R\xb8\x1e\x85\xeb\x112@'
p2259
tp2260
Rp2261
sg278
g204
(g208
S'{\x14\xaeG\xe1z\x19@'
p2262
tp2263
Rp2264
sg282
g204
(g208
S')\\\x8f\xc2\xf5(\xcc?'
p2265
tp2266
Rp2267
sg286
g204
(g208
S'=\n\xd7\xa3p=\x1b\xc0'
p2268
tp2269
Rp2270
sg290
g204
(g208
S'ffffff\x1e\xc0'
p2271
tp2272
Rp2273
sg294
g204
(g208
S'R\xb8\x1e\x85\xeb\x910\xc0'
p2274
tp2275
Rp2276
sg298
g204
(g208
S'\xc3\xf5(\\\x8f\xc2\xf5\xbf'
p2277
tp2278
Rp2279
sg302
g204
(g208
S'4333330@'
p2280
tp2281
Rp2282
sg306
g204
(g208
S'\x00H\xe1z\x14\xae\xd7\xbf'
p2283
tp2284
Rp2285
sa(dp2286
g203
g204
(g208
S')\\\x8f\xc2\xf5(\xcc?'
p2287
tp2288
Rp2289
sg214
g204
(g208
S'\xa4p=\n\xd7\xa3\xc0\xbf'
p2290
tp2291
Rp2292
sg218
g204
(g208
S'\x1f\x85\xebQ\xb8\x1e\x1f@'
p2293
tp2294
Rp2295
sg222
g204
(g208
S'\x00\x00\x00\x00\x00\x00\xe0\xbf'
p2296
tp2297
Rp2298
sg226
g204
(g208
S')\\\x8f\xc2\xf5(\xf0?'
p2299
tp2300
Rp2301
sg230
g204
(g208
S'\xa4p=\n\xd7\xa3\xc0?'
p2302
tp2303
Rp2304
sg234
g204
(g208
S'333333\xc3\xbf'
p2305
tp2306
Rp2307
sg238
g204
(g208
S'\xb0G\xe1z\x14n1\xc0'
p2308
tp2309
Rp2310
sg242
g204
(g208
S'\x00\x9a\x99\x99\x99\x99\xc9\xbf'
p2311
tp2312
Rp2313
sg246
g204
(g208
S'{\x14\xaeG\xe1z\xa4\xbf'
p2314
tp2315
Rp2316
sg250
g204
(g208
S'\xe1z\x14\xaeG\xe1\xea\xbf'
p2317
tp2318
Rp2319
sg254
g204
(g208
S'\xb8\x1e\x85\xebQ\xb8\x17\xc0'
p2320
tp2321
Rp2322
sg258
g204
(g208
S'{\x14\xaeG\xe1z\xa4?'
p2323
tp2324
Rp2325
sg262
g204
(g208
S'\xd7\xa3p=\n\xd7\xd3\xbf'
p2326
tp2327
Rp2328
sg266
g204
(g208
S'\xf6(\\\x8f\xc2\xf5\x13@'
p2329
tp2330
Rp2331
sg270
g204
(g208
S'\xa4p=\n\xd7\xa3\xc0?'
p2332
tp2333
Rp2334
sg274
g204
(g208
S'\xaeG\xe1z\x14\xae2@'
p2335
tp2336
Rp2337
sg278
g204
(g208
S'\xd7\xa3p=\n\xd7!@'
p2338
tp2339
Rp2340
sg282
g204
(g208
S')\\\x8f\xc2\xf5(\xcc?'
p2341
tp2342
Rp2343
sg286
g204
(g208
S'\xaeG\xe1z\x14\xae\x16\xc0'
p2344
tp2345
Rp2346
sg290
g204
(g208
S'fffff\xe6"\xc0'
p2347
tp2348
Rp2349
sg294
g204
(g208
S'\n\xd7\xa3p=\x8a1\xc0'
p2350
tp2351
Rp2352
sg298
g204
(g208
S'\x9a\x99\x99\x99\x99\x99\xd9\xbf'
p2353
tp2354
Rp2355
sg302
g204
(g208
S'(\\\x8f\xc2\xf5(1@'
p2356
tp2357
Rp2358
sg306
g204
(g208
S'\x00\x9a\x99\x99\x99\x99\xc9\xbf'
p2359
tp2360
Rp2361
sa(dp2362
g203
g204
(g208
S')\\\x8f\xc2\xf5(\xcc?'
p2363
tp2364
Rp2365
sg214
g204
(g208
S'\xa4p=\n\xd7\xa3\xc0\xbf'
p2366
tp2367
Rp2368
sg218
g204
(g208
S'\x1f\x85\xebQ\xb8\x1e\x1f@'
p2369
tp2370
Rp2371
sg222
g204
(g208
S'\x00\x00\x00\x00\x00\x00\xe0\xbf'
p2372
tp2373
Rp2374
sg226
g204
(g208
S')\\\x8f\xc2\xf5(\xf0?'
p2375
tp2376
Rp2377
sg230
g204
(g208
S'\xa4p=\n\xd7\xa3\xc0?'
p2378
tp2379
Rp2380
sg234
g204
(g208
S'333333\xc3\xbf'
p2381
tp2382
Rp2383
sg238
g204
(g208
S'\xb0G\xe1z\x14n1\xc0'
p2384
tp2385
Rp2386
sg242
g204
(g208
S'\x00\x9a\x99\x99\x99\x99\xc9\xbf'
p2387
tp2388
Rp2389
sg246
g204
(g208
S'{\x14\xaeG\xe1z\xa4\xbf'
p2390
tp2391
Rp2392
sg250
g204
(g208
S'\xe1z\x14\xaeG\xe1\xea\xbf'
p2393
tp2394
Rp2395
sg254
g204
(g208
S'\xb8\x1e\x85\xebQ\xb8\x17\xc0'
p2396
tp2397
Rp2398
sg258
g204
(g208
S'{\x14\xaeG\xe1z\xa4?'
p2399
tp2400
Rp2401
sg262
g204
(g208
S'\xd7\xa3p=\n\xd7\xd3\xbf'
p2402
tp2403
Rp2404
sg266
g204
(g208
S'\xf6(\\\x8f\xc2\xf5\x13@'
p2405
tp2406
Rp2407
sg270
g204
(g208
S'\xa4p=\n\xd7\xa3\xc0?'
p2408
tp2409
Rp2410
sg274
g204
(g208
S'\xaeG\xe1z\x14\xae2@'
p2411
tp2412
Rp2413
sg278
g204
(g208
S'\\\x8f\xc2\xf5(\\(@'
p2414
tp2415
Rp2416
sg282
g204
(g208
S')\\\x8f\xc2\xf5(\xcc?'
p2417
tp2418
Rp2419
sg286
g204
(g208
S'R\xb8\x1e\x85\xebQ\x16\xc0'
p2420
tp2421
Rp2422
sg290
g204
(g208
S'33333\xb3(\xc0'
p2423
tp2424
Rp2425
sg294
g204
(g208
S'\xe1z\x14\xaeG\xa11\xc0'
p2426
tp2427
Rp2428
sg298
g204
(g208
S'\xd7\xa3p=\n\xd7\xd3\xbf'
p2429
tp2430
Rp2431
sg302
g204
(g208
S'(\\\x8f\xc2\xf5(1@'
p2432
tp2433
Rp2434
sg306
g204
(g208
S'\x00\x9a\x99\x99\x99\x99\xc9\xbf'
p2435
tp2436
Rp2437
sa(dp2438
g203
g204
(g208
S')\\\x8f\xc2\xf5(\xcc?'
p2439
tp2440
Rp2441
sg214
g204
(g208
S'\xa4p=\n\xd7\xa3\xc0\xbf'
p2442
tp2443
Rp2444
sg218
g204
(g208
S'\x1f\x85\xebQ\xb8\x1e\x1f@'
p2445
tp2446
Rp2447
sg222
g204
(g208
S'\x00{\x14\xaeG\xe1\xca\xbf'
p2448
tp2449
Rp2450
sg226
g204
(g208
S')\\\x8f\xc2\xf5(\xf0?'
p2451
tp2452
Rp2453
sg230
g204
(g208
S'\xa4p=\n\xd7\xa3\xc0?'
p2454
tp2455
Rp2456
sg234
g204
(g208
S'333333\xc3\xbf'
p2457
tp2458
Rp2459
sg238
g204
(g208
S'\xb0G\xe1z\x14n1\xc0'
p2460
tp2461
Rp2462
sg242
g204
(g208
S'\x00\x9a\x99\x99\x99\x99\xc9\xbf'
p2463
tp2464
Rp2465
sg246
g204
(g208
S'{\x14\xaeG\xe1z\xa4\xbf'
p2466
tp2467
Rp2468
sg250
g204
(g208
S'q=\n\xd7\xa3p\xed\xbf'
p2469
tp2470
Rp2471
sg254
g204
(g208
S'\xb8\x1e\x85\xebQ\xb8\x17\xc0'
p2472
tp2473
Rp2474
sg258
g204
(g208
S'\xa4p=\n\xd7\xa3\xc0?'
p2475
tp2476
Rp2477
sg262
g204
(g208
S'\xd7\xa3p=\n\xd7\xd3\xbf'
p2478
tp2479
Rp2480
sg266
g204
(g208
S'\x9a\x99\x99\x99\x99\x99\x13@'
p2481
tp2482
Rp2483
sg270
g204
(g208
S'\xa4p=\n\xd7\xa3\xc0?'
p2484
tp2485
Rp2486
sg274
g204
(g208
S'\xaeG\xe1z\x14\xae2@'
p2487
tp2488
Rp2489
sg278
g204
(g208
S'R\xb8\x1e\x85\xebQ.@'
p2490
tp2491
Rp2492
sg282
g204
(g208
S')\\\x8f\xc2\xf5(\xcc?'
p2493
tp2494
Rp2495
sg286
g204
(g208
S'R\xb8\x1e\x85\xebQ\x16\xc0'
p2496
tp2497
Rp2498
sg290
g204
(g208
S'\\\x8f\xc2\xf5(\xdc.\xc0'
p2499
tp2500
Rp2501
sg294
g204
(g208
S'\xe1z\x14\xaeG\xa11\xc0'
p2502
tp2503
Rp2504
sg298
g204
(g208
S'\x9a\x99\x99\x99\x99\x99\xd9\xbf'
p2505
tp2506
Rp2507
sg302
g204
(g208
S'\x14\xaeG\xe1z\x141@'
p2508
tp2509
Rp2510
sg306
g204
(g208
S'\x00\x9a\x99\x99\x99\x99\xc9\xbf'
p2511
tp2512
Rp2513
sa(dp2514
g203
g204
(g208
S')\\\x8f\xc2\xf5(\xcc?'
p2515
tp2516
Rp2517
sg214
g204
(g208
S'\xa4p=\n\xd7\xa3\xc0\xbf'
p2518
tp2519
Rp2520
sg218
g204
(g208
S'\xc3\xf5(\\\x8f\xc2\x1e@'
p2521
tp2522
Rp2523
sg222
g204
(g208
S'\x00\x00\x00\x00\x00\x00\xe0\xbf'
p2524
tp2525
Rp2526
sg226
g204
(g208
S'q=\n\xd7\xa3p\xed?'
p2527
tp2528
Rp2529
sg230
g204
(g208
S'\xa4p=\n\xd7\xa3\xc0?'
p2530
tp2531
Rp2532
sg234
g204
(g208
S'333333\xc3\xbf'
p2533
tp2534
Rp2535
sg238
g204
(g208
S'\xb0G\xe1z\x14n1\xc0'
p2536
tp2537
Rp2538
sg242
g204
(g208
S'\x00\x9a\x99\x99\x99\x99\xc9\xbf'
p2539
tp2540
Rp2541
sg246
g204
(g208
S'{\x14\xaeG\xe1z\xa4?'
p2542
tp2543
Rp2544
sg250
g204
(g208
S'q=\n\xd7\xa3p\xed\xbf'
p2545
tp2546
Rp2547
sg254
g204
(g208
S'\xb8\x1e\x85\xebQ\xb8\x17\xc0'
p2548
tp2549
Rp2550
sg258
g204
(g208
S'\xa4p=\n\xd7\xa3\xc0?'
p2551
tp2552
Rp2553
sg262
g204
(g208
S')\\\x8f\xc2\xf5(\xcc\xbf'
p2554
tp2555
Rp2556
sg266
g204
(g208
S'\x9a\x99\x99\x99\x99\x99\x13@'
p2557
tp2558
Rp2559
sg270
g204
(g208
S'\xa4p=\n\xd7\xa3\xc0?'
p2560
tp2561
Rp2562
sg274
g204
(g208
S'\xaeG\xe1z\x14\xae2@'
p2563
tp2564
Rp2565
sg278
g204
(g208
S'\x14\xaeG\xe1zT2@'
p2566
tp2567
Rp2568
sg282
g204
(g208
S')\\\x8f\xc2\xf5(\xcc?'
p2569
tp2570
Rp2571
sg286
g204
(g208
S'\xaeG\xe1z\x14\xae\x16\xc0'
p2572
tp2573
Rp2574
sg290
g204
(g208
S'\xecQ\xb8\x1e\x85k2\xc0'
p2575
tp2576
Rp2577
sg294
g204
(g208
S'\xe1z\x14\xaeG\xa11\xc0'
p2578
tp2579
Rp2580
sg298
g204
(g208
S'=\n\xd7\xa3p=\xe2\xbf'
p2581
tp2582
Rp2583
sg302
g204
(g208
S'(\\\x8f\xc2\xf5(1@'
p2584
tp2585
Rp2586
sg306
g204
(g208
S'\x00\x9a\x99\x99\x99\x99\xc9\xbf'
p2587
tp2588
Rp2589
sa(dp2590
g203
g204
(g208
S'\xa4p=\n\xd7\xa3\xc0?'
p2591
tp2592
Rp2593
sg214
g204
(g208
S'\xa4p=\n\xd7\xa3\xc0\xbf'
p2594
tp2595
Rp2596
sg218
g204
(g208
S'\x1f\x85\xebQ\xb8\x1e\x1f@'
p2597
tp2598
Rp2599
sg222
g204
(g208
S'\x00{\x14\xaeG\xe1\xca\xbf'
p2600
tp2601
Rp2602
sg226
g204
(g208
S'q=\n\xd7\xa3p\xed?'
p2603
tp2604
Rp2605
sg230
g204
(g208
S'\xa4p=\n\xd7\xa3\xc0?'
p2606
tp2607
Rp2608
sg234
g204
(g208
S'333333\xc3?'
p2609
tp2610
Rp2611
sg238
g204
(g208
S'\xc4\xf5(\\\x8f\x023\xc0'
p2612
tp2613
Rp2614
sg242
g204
(g208
S'\x00\x9a\x99\x99\x99\x99\xc9\xbf'
p2615
tp2616
Rp2617
sg246
g204
(g208
S'{\x14\xaeG\xe1z\xa4\xbf'
p2618
tp2619
Rp2620
sg250
g204
(g208
S'\xe1z\x14\xaeG\xe1\xea\xbf'
p2621
tp2622
Rp2623
sg254
g204
(g208
S'\xb8\x1e\x85\xebQ\xb8\x17\xc0'
p2624
tp2625
Rp2626
sg258
g204
(g208
S'\xa4p=\n\xd7\xa3\xc0?'
p2627
tp2628
Rp2629
sg262
g204
(g208
S')\\\x8f\xc2\xf5(\xcc\xbf'
p2630
tp2631
Rp2632
sg266
g204
(g208
S'\xf6(\\\x8f\xc2\xf5\x13@'
p2633
tp2634
Rp2635
sg270
g204
(g208
S'\xa4p=\n\xd7\xa3\xc0?'
p2636
tp2637
Rp2638
sg274
g204
(g208
S'\xcd\xcc\xcc\xcc\xcc\x0c5@'
p2639
tp2640
Rp2641
sg278
g204
(g208
S'\xcd\xcc\xcc\xcc\xcc\xcc\x18@'
p2642
tp2643
Rp2644
sg282
g204
(g208
S')\\\x8f\xc2\xf5(\xcc?'
p2645
tp2646
Rp2647
sg286
g204
(g208
S'\n\xd7\xa3p=\n\x17\xc0'
p2648
tp2649
Rp2650
sg290
g204
(g208
S'\xb8\x1e\x85\xebQ\xb8\x1d\xc0'
p2651
tp2652
Rp2653
sg294
g204
(g208
S'\xe1z\x14\xaeGa3\xc0'
p2654
tp2655
Rp2656
sg298
g204
(g208
S'\xb8\x1e\x85\xebQ\xb8\xde\xbf'
p2657
tp2658
Rp2659
sg302
g204
(g208
S'\x98\x99\x99\x99\x99\x193@'
p2660
tp2661
Rp2662
sg306
g204
(g208
S'\x00\x9a\x99\x99\x99\x99\xc9\xbf'
p2663
tp2664
Rp2665
sa(dp2666
g203
g204
(g208
S')\\\x8f\xc2\xf5(\xcc?'
p2667
tp2668
Rp2669
sg214
g204
(g208
S'\xa4p=\n\xd7\xa3\xc0\xbf'
p2670
tp2671
Rp2672
sg218
g204
(g208
S'\xc3\xf5(\\\x8fB @'
p2673
tp2674
Rp2675
sg222
g204
(g208
S'\x00\x00\x00\x00\x00\x00\xe0\xbf'
p2676
tp2677
Rp2678
sg226
g204
(g208
S'\x1f\x85\xebQ\xb8\x1e\xe5?'
p2679
tp2680
Rp2681
sg230
g204
(g208
S'\xa4p=\n\xd7\xa3\xc0?'
p2682
tp2683
Rp2684
sg234
g204
(g208
S'333333\xc3?'
p2685
tp2686
Rp2687
sg238
g204
(g208
S'\xcc\xcc\xcc\xcc\xcc\xcc3\xc0'
p2688
tp2689
Rp2690
sg242
g204
(g208
S'\x00\x9a\x99\x99\x99\x99\xc9\xbf'
p2691
tp2692
Rp2693
sg246
g204
(g208
S'{\x14\xaeG\xe1z\xa4\xbf'
p2694
tp2695
Rp2696
sg250
g204
(g208
S'\xe1z\x14\xaeG\xe1\xea\xbf'
p2697
tp2698
Rp2699
sg254
g204
(g208
S'\xb8\x1e\x85\xebQ\xb8\x17\xc0'
p2700
tp2701
Rp2702
sg258
g204
(g208
S'\xa4p=\n\xd7\xa3\xc0?'
p2703
tp2704
Rp2705
sg262
g204
(g208
S'\xd7\xa3p=\n\xd7\xd3\xbf'
p2706
tp2707
Rp2708
sg266
g204
(g208
S'\x9a\x99\x99\x99\x99\x99\x13@'
p2709
tp2710
Rp2711
sg270
g204
(g208
S'\xa4p=\n\xd7\xa3\xc0?'
p2712
tp2713
Rp2714
sg274
g204
(g208
S'\xecQ\xb8\x1e\x85\xab5@'
p2715
tp2716
Rp2717
sg278
g204
(g208
S'\xd7\xa3p=\n\xd7!@'
p2718
tp2719
Rp2720
sg282
g204
(g208
S')\\\x8f\xc2\xf5(\xcc?'
p2721
tp2722
Rp2723
sg286
g204
(g208
S'ffffff\x17\xc0'
p2724
tp2725
Rp2726
sg290
g204
(g208
S'\xb8\x1e\x85\xebQ\xb8"\xc0'
p2727
tp2728
Rp2729
sg294
g204
(g208
S'33333\xb34\xc0'
p2730
tp2731
Rp2732
sg298
g204
(g208
S'\x9a\x99\x99\x99\x99\x99\xd9\xbf'
p2733
tp2734
Rp2735
sg302
g204
(g208
S'\xcc\xcc\xcc\xcc\xcc\xcc3@'
p2736
tp2737
Rp2738
sg306
g204
(g208
S'\x00\x9a\x99\x99\x99\x99\xc9\xbf'
p2739
tp2740
Rp2741
sa(dp2742
g203
g204
(g208
S')\\\x8f\xc2\xf5(\xcc?'
p2743
tp2744
Rp2745
sg214
g204
(g208
S'\xa4p=\n\xd7\xa3\xc0\xbf'
p2746
tp2747
Rp2748
sg218
g204
(g208
S'\xc3\xf5(\\\x8fB @'
p2749
tp2750
Rp2751
sg222
g204
(g208
S'@\xb8\x1e\x85\xebQ\xd8?'
p2752
tp2753
Rp2754
sg226
g204
(g208
S'=\n\xd7\xa3p=\xfe?'
p2755
tp2756
Rp2757
sg230
g204
(g208
S'\xa4p=\n\xd7\xa3\xc0?'
p2758
tp2759
Rp2760
sg234
g204
(g208
S'333333\xc3?'
p2761
tp2762
Rp2763
sg238
g204
(g208
S'hffff&4\xc0'
p2764
tp2765
Rp2766
sg242
g204
(g208
S'\x00\\\x8f\xc2\xf5(\xbc\xbf'
p2767
tp2768
Rp2769
sg246
g204
(g208
S'{\x14\xaeG\xe1z\xa4?'
p2770
tp2771
Rp2772
sg250
g204
(g208
S'q=\n\xd7\xa3p\xed\xbf'
p2773
tp2774
Rp2775
sg254
g204
(g208
S'\xb8\x1e\x85\xebQ\xb8\x17\xc0'
p2776
tp2777
Rp2778
sg258
g204
(g208
S'{\x14\xaeG\xe1z\xa4?'
p2779
tp2780
Rp2781
sg262
g204
(g208
S'\xd7\xa3p=\n\xd7\xd3\xbf'
p2782
tp2783
Rp2784
sg266
g204
(g208
S'\xf6(\\\x8f\xc2\xf5\x13@'
p2785
tp2786
Rp2787
sg270
g204
(g208
S'\xa4p=\n\xd7\xa3\xc0?'
p2788
tp2789
Rp2790
sg274
g204
(g208
S'\xecQ\xb8\x1e\x85\xab5@'
p2791
tp2792
Rp2793
sg278
g204
(g208
S'\\\x8f\xc2\xf5(\\(@'
p2794
tp2795
Rp2796
sg282
g204
(g208
S')\\\x8f\xc2\xf5(\xcc?'
p2797
tp2798
Rp2799
sg286
g204
(g208
S'H\xe1z\x14\xaeG\x15\xc0'
p2800
tp2801
Rp2802
sg290
g204
(g208
S'33333\xb3(\xc0'
p2803
tp2804
Rp2805
sg294
g204
(g208
S'\xe1z\x14\xaeG\xe14\xc0'
p2806
tp2807
Rp2808
sg298
g204
(g208
S'\xa4p=\n\xd7\xa3\xc0\xbf'
p2809
tp2810
Rp2811
sg302
g204
(g208
S'\xcc\xcc\xcc\xcc\xcc\xcc3@'
p2812
tp2813
Rp2814
sg306
g204
(g208
S'\x00\x9a\x99\x99\x99\x99\xc9\xbf'
p2815
tp2816
Rp2817
sa(dp2818
g203
g204
(g208
S')\\\x8f\xc2\xf5(\xcc?'
p2819
tp2820
Rp2821
sg214
g204
(g208
S'\xa4p=\n\xd7\xa3\xc0\xbf'
p2822
tp2823
Rp2824
sg218
g204
(g208
S'\x1f\x85\xebQ\xb8\x1e\x1f@'
p2825
tp2826
Rp2827
sg222
g204
(g208
S'\x00{\x14\xaeG\xe1\xca\xbf'
p2828
tp2829
Rp2830
sg226
g204
(g208
S'\xc3\xf5(\\\x8f\xc2\xf5?'
p2831
tp2832
Rp2833
sg230
g204
(g208
S'\xa4p=\n\xd7\xa3\xc0?'
p2834
tp2835
Rp2836
sg234
g204
(g208
S'333333\xc3?'
p2837
tp2838
Rp2839
sg238
g204
(g208
S'hffff&4\xc0'
p2840
tp2841
Rp2842
sg242
g204
(g208
S'\x00\x9a\x99\x99\x99\x99\xc9\xbf'
p2843
tp2844
Rp2845
sg246
g204
(g208
S'{\x14\xaeG\xe1z\xa4?'
p2846
tp2847
Rp2848
sg250
g204
(g208
S')\\\x8f\xc2\xf5(\xf0\xbf'
p2849
tp2850
Rp2851
sg254
g204
(g208
S'ffffff\x17\xc0'
p2852
tp2853
Rp2854
sg258
g204
(g208
S'{\x14\xaeG\xe1z\xa4?'
p2855
tp2856
Rp2857
sg262
g204
(g208
S'\xb8\x1e\x85\xebQ\xb8\xde\xbf'
p2858
tp2859
Rp2860
sg266
g204
(g208
S'\xf6(\\\x8f\xc2\xf5\x13@'
p2861
tp2862
Rp2863
sg270
g204
(g208
S'\xa4p=\n\xd7\xa3\xc0?'
p2864
tp2865
Rp2866
sg274
g204
(g208
S'\x9a\x99\x99\x99\x99\xd95@'
p2867
tp2868
Rp2869
sg278
g204
(g208
S'R\xb8\x1e\x85\xebQ.@'
p2870
tp2871
Rp2872
sg282
g204
(g208
S')\\\x8f\xc2\xf5(\xcc?'
p2873
tp2874
Rp2875
sg286
g204
(g208
S'\xf6(\\\x8f\xc2\xf5\x15\xc0'
p2876
tp2877
Rp2878
sg290
g204
(g208
S'\xaeG\xe1z\x14\xae.\xc0'
p2879
tp2880
Rp2881
sg294
g204
(g208
S'H\xe1z\x14\xae\x874\xc0'
p2882
tp2883
Rp2884
sg298
g204
(g208
S'\xd7\xa3p=\n\xd7\xd3\xbf'
p2885
tp2886
Rp2887
sg302
g204
(g208
S'\xcc\xcc\xcc\xcc\xcc\xcc3@'
p2888
tp2889
Rp2890
sg306
g204
(g208
S'\x00\x9a\x99\x99\x99\x99\xc9\xbf'
p2891
tp2892
Rp2893
sa(dp2894
g203
g204
(g208
S')\\\x8f\xc2\xf5(\xcc?'
p2895
tp2896
Rp2897
sg214
g204
(g208
S'\xa4p=\n\xd7\xa3\xc0\xbf'
p2898
tp2899
Rp2900
sg218
g204
(g208
S'\x1f\x85\xebQ\xb8\x1e\x1f@'
p2901
tp2902
Rp2903
sg222
g204
(g208
S'\x00\x00\x00\x00\x00\x00\xe0\xbf'
p2904
tp2905
Rp2906
sg226
g204
(g208
S'R\xb8\x1e\x85\xebQ\xf4?'
p2907
tp2908
Rp2909
sg230
g204
(g208
S'\xa4p=\n\xd7\xa3\xc0?'
p2910
tp2911
Rp2912
sg234
g204
(g208
S'333333\xc3\xbf'
p2913
tp2914
Rp2915
sg238
g204
(g208
S'hffff&4\xc0'
p2916
tp2917
Rp2918
sg242
g204
(g208
S'\x00\x9a\x99\x99\x99\x99\xc9\xbf'
p2919
tp2920
Rp2921
sg246
g204
(g208
S'{\x14\xaeG\xe1z\xa4?'
p2922
tp2923
Rp2924
sg250
g204
(g208
S')\\\x8f\xc2\xf5(\xf0\xbf'
p2925
tp2926
Rp2927
sg254
g204
(g208
S'\xb8\x1e\x85\xebQ\xb8\x17\xc0'
p2928
tp2929
Rp2930
sg258
g204
(g208
S'{\x14\xaeG\xe1z\xa4?'
p2931
tp2932
Rp2933
sg262
g204
(g208
S'\xb8\x1e\x85\xebQ\xb8\xde\xbf'
p2934
tp2935
Rp2936
sg266
g204
(g208
S'\x9a\x99\x99\x99\x99\x99\x13@'
p2937
tp2938
Rp2939
sg270
g204
(g208
S'\xa4p=\n\xd7\xa3\xc0?'
p2940
tp2941
Rp2942
sg274
g204
(g208
S'\xaeG\xe1z\x14\xee5@'
p2943
tp2944
Rp2945
sg278
g204
(g208
S'=\n\xd7\xa3p=2@'
p2946
tp2947
Rp2948
sg282
g204
(g208
S')\\\x8f\xc2\xf5(\xcc?'
p2949
tp2950
Rp2951
sg286
g204
(g208
S'\xf6(\\\x8f\xc2\xf5\x15\xc0'
p2952
tp2953
Rp2954
sg290
g204
(g208
S'\x14\xaeG\xe1zT2\xc0'
p2955
tp2956
Rp2957
sg294
g204
(g208
S'H\xe1z\x14\xae\x874\xc0'
p2958
tp2959
Rp2960
sg298
g204
(g208
S'\x9a\x99\x99\x99\x99\x99\xd9\xbf'
p2961
tp2962
Rp2963
sg302
g204
(g208
S'\xa4p=\n\xd7\xe33@'
p2964
tp2965
Rp2966
sg306
g204
(g208
S'\x00\x9a\x99\x99\x99\x99\xc9\xbf'
p2967
tp2968
Rp2969
sa(dp2970
g203
g204
(g208
S')\\\x8f\xc2\xf5(\xcc?'
p2971
tp2972
Rp2973
sg214
g204
(g208
S'\xa4p=\n\xd7\xa3\xc0\xbf'
p2974
tp2975
Rp2976
sg218
g204
(g208
S'{\x14\xaeG\xe1z\x1f@'
p2977
tp2978
Rp2979
sg222
g204
(g208
S'\x00\x00\x00\x00\x00\x00\xe0\xbf'
p2980
tp2981
Rp2982
sg226
g204
(g208
S'333333\xf7?'
p2983
tp2984
Rp2985
sg230
g204
(g208
S'\xa4p=\n\xd7\xa3\xc0?'
p2986
tp2987
Rp2988
sg234
g204
(g208
S'333333\xc3\xbf'
p2989
tp2990
Rp2991
sg238
g204
(g208
S'\x00\x00\x00\x00\x00\x006\xc0'
p2992
tp2993
Rp2994
sg242
g204
(g208
S'\x00\x9a\x99\x99\x99\x99\xc9\xbf'
p2995
tp2996
Rp2997
sg246
g204
(g208
S'{\x14\xaeG\xe1z\xa4?'
p2998
tp2999
Rp3000
sg250
g204
(g208
S')\\\x8f\xc2\xf5(\xf0\xbf'
p3001
tp3002
Rp3003
sg254
g204
(g208
S'ffffff\x17\xc0'
p3004
tp3005
Rp3006
sg258
g204
(g208
S'{\x14\xaeG\xe1z\xa4?'
p3007
tp3008
Rp3009
sg262
g204
(g208
S'\x9a\x99\x99\x99\x99\x99\xd9\xbf'
p3010
tp3011
Rp3012
sg266
g204
(g208
S'\xf6(\\\x8f\xc2\xf5\x13@'
p3013
tp3014
Rp3015
sg270
g204
(g208
S'\xa4p=\n\xd7\xa3\xc0?'
p3016
tp3017
Rp3018
sg274
g204
(g208
S'\xb8\x1e\x85\xebQ88@'
p3019
tp3020
Rp3021
sg278
g204
(g208
S'q=\n\xd7\xa3p\x18@'
p3022
tp3023
Rp3024
sg282
g204
(g208
S')\\\x8f\xc2\xf5(\xcc?'
p3025
tp3026
Rp3027
sg286
g204
(g208
S'\xa4p=\n\xd7\xa3\x15\xc0'
p3028
tp3029
Rp3030
sg290
g204
(g208
S'\xb8\x1e\x85\xebQ\xb8\x1d\xc0'
p3031
tp3032
Rp3033
sg294
g204
(g208
S'3333336\xc0'
p3034
tp3035
Rp3036
sg298
g204
(g208
S')\\\x8f\xc2\xf5(\xcc\xbf'
p3037
tp3038
Rp3039
sg302
g204
(g208
S'\xd8\xa3p=\n\x176@'
p3040
tp3041
Rp3042
sg306
g204
(g208
S'\x00\x9a\x99\x99\x99\x99\xc9\xbf'
p3043
tp3044
Rp3045
sa(dp3046
g203
g204
(g208
S')\\\x8f\xc2\xf5(\xcc?'
p3047
tp3048
Rp3049
sg214
g204
(g208
S'\xa4p=\n\xd7\xa3\xc0\xbf'
p3050
tp3051
Rp3052
sg218
g204
(g208
S'q=\n\xd7\xa3p @'
p3053
tp3054
Rp3055
sg222
g204
(g208
S'\x00\x00\x00\x00\x00\x00\xe0\xbf'
p3056
tp3057
Rp3058
sg226
g204
(g208
S'\xcd\xcc\xcc\xcc\xcc\xcc\xfc?'
p3059
tp3060
Rp3061
sg230
g204
(g208
S'\xa4p=\n\xd7\xa3\xc0?'
p3062
tp3063
Rp3064
sg234
g204
(g208
S'333333\xc3\xbf'
p3065
tp3066
Rp3067
sg238
g204
(g208
S'\xcc\xcc\xcc\xcc\xcc\x0c7\xc0'
p3068
tp3069
Rp3070
sg242
g204
(g208
S'\x00P\xb8\x1e\x85\xeb\xb1?'
p3071
tp3072
Rp3073
sg246
g204
(g208
S'{\x14\xaeG\xe1z\xa4\xbf'
p3074
tp3075
Rp3076
sg250
g204
(g208
S'R\xb8\x1e\x85\xebQ\xf4\xbf'
p3077
tp3078
Rp3079
sg254
g204
(g208
S'\xa4p=\n\xd7\xa3\x15\xc0'
p3080
tp3081
Rp3082
sg258
g204
(g208
S'{\x14\xaeG\xe1z\xa4?'
p3083
tp3084
Rp3085
sg262
g204
(g208
S'\xd7\xa3p=\n\xd7\xd3\xbf'
p3086
tp3087
Rp3088
sg266
g204
(g208
S'\xf6(\\\x8f\xc2\xf5\x13@'
p3089
tp3090
Rp3091
sg270
g204
(g208
S'\xa4p=\n\xd7\xa3\xc0?'
p3092
tp3093
Rp3094
sg274
g204
(g208
S'\xecQ\xb8\x1e\x85\xeb8@'
p3095
tp3096
Rp3097
sg278
g204
(g208
S'R\xb8\x1e\x85\xebQ!@'
p3098
tp3099
Rp3100
sg282
g204
(g208
S')\\\x8f\xc2\xf5(\xcc?'
p3101
tp3102
Rp3103
sg286
g204
(g208
S'{\x14\xaeG\xe1z\x12\xc0'
p3104
tp3105
Rp3106
sg290
g204
(g208
S'\xb8\x1e\x85\xebQ\xb8"\xc0'
p3107
tp3108
Rp3109
sg294
g204
(g208
S'\x8f\xc2\xf5(\\O8\xc0'
p3110
tp3111
Rp3112
sg298
g204
(g208
S')\\\x8f\xc2\xf5(\xcc?'
p3113
tp3114
Rp3115
sg302
g204
(g208
S'\x0c\xd7\xa3p=\xca6@'
p3116
tp3117
Rp3118
sg306
g204
(g208
S'\x00\x9a\x99\x99\x99\x99\xc9\xbf'
p3119
tp3120
Rp3121
sa(dp3122
g203
g204
(g208
S')\\\x8f\xc2\xf5(\xcc?'
p3123
tp3124
Rp3125
sg214
g204
(g208
S'\xa4p=\n\xd7\xa3\xc0\xbf'
p3126
tp3127
Rp3128
sg218
g204
(g208
S'q=\n\xd7\xa3p @'
p3129
tp3130
Rp3131
sg222
g204
(g208
S'\x00{\x14\xaeG\xe1\xca\xbf'
p3132
tp3133
Rp3134
sg226
g204
(g208
S'\\\x8f\xc2\xf5(\\\xfb?'
p3135
tp3136
Rp3137
sg230
g204
(g208
S'\xa4p=\n\xd7\xa3\xc0?'
p3138
tp3139
Rp3140
sg234
g204
(g208
S'333333\xc3\xbf'
p3141
tp3142
Rp3143
sg238
g204
(g208
S'\xcc\xcc\xcc\xcc\xcc\x0c7\xc0'
p3144
tp3145
Rp3146
sg242
g204
(g208
S'\x00P\xb8\x1e\x85\xeb\xb1?'
p3147
tp3148
Rp3149
sg246
g204
(g208
S'{\x14\xaeG\xe1z\xa4\xbf'
p3150
tp3151
Rp3152
sg250
g204
(g208
S'R\xb8\x1e\x85\xebQ\xf4\xbf'
p3153
tp3154
Rp3155
sg254
g204
(g208
S'R\xb8\x1e\x85\xebQ\x16\xc0'
p3156
tp3157
Rp3158
sg258
g204
(g208
S'{\x14\xaeG\xe1z\xa4?'
p3159
tp3160
Rp3161
sg262
g204
(g208
S'\xd7\xa3p=\n\xd7\xd3\xbf'
p3162
tp3163
Rp3164
sg266
g204
(g208
S'\xf6(\\\x8f\xc2\xf5\x13@'
p3165
tp3166
Rp3167
sg270
g204
(g208
S')\\\x8f\xc2\xf5(\xcc?'
p3168
tp3169
Rp3170
sg274
g204
(g208
S'\xecQ\xb8\x1e\x85\xeb8@'
p3171
tp3172
Rp3173
sg278
g204
(g208
S"R\xb8\x1e\x85\xeb\xd1'@"
p3174
tp3175
Rp3176
sg282
g204
(g208
S')\\\x8f\xc2\xf5(\xcc?'
p3177
tp3178
Rp3179
sg286
g204
(g208
S'\x1f\x85\xebQ\xb8\x1e\x12\xc0'
p3180
tp3181
Rp3182
sg290
g204
(g208
S'\xe1z\x14\xaeG\xe1(\xc0'
p3183
tp3184
Rp3185
sg294
g204
(g208
S'\xb8\x1e\x85\xebQ88\xc0'
p3186
tp3187
Rp3188
sg298
g204
(g208
S'{\x14\xaeG\xe1z\xa4?'
p3189
tp3190
Rp3191
sg302
g204
(g208
S'\x0c\xd7\xa3p=\xca6@'
p3192
tp3193
Rp3194
sg306
g204
(g208
S'\x00\x9a\x99\x99\x99\x99\xc9\xbf'
p3195
tp3196
Rp3197
sa(dp3198
g203
g204
(g208
S')\\\x8f\xc2\xf5(\xcc?'
p3199
tp3200
Rp3201
sg214
g204
(g208
S'\xa4p=\n\xd7\xa3\xc0\xbf'
p3202
tp3203
Rp3204
sg218
g204
(g208
S'\\\x8f\xc2\xf5(\\\x1d@'
p3205
tp3206
Rp3207
sg222
g204
(g208
S'\x00\x00\x00\x00\x00\x00\xe0\xbf'
p3208
tp3209
Rp3210
sg226
g204
(g208
S')\\\x8f\xc2\xf5(\xcc?'
p3211
tp3212
Rp3213
sg230
g204
(g208
S'\xa4p=\n\xd7\xa3\xc0?'
p3214
tp3215
Rp3216
sg234
g204
(g208
S'333333\xc3\xbf'
p3217
tp3218
Rp3219
sg238
g204
(g208
S'\xcc\xcc\xcc\xcc\xcc\x0c7\xc0'
p3220
tp3221
Rp3222
sg242
g204
(g208
S'\x00\x9a\x99\x99\x99\x99\xc9\xbf'
p3223
tp3224
Rp3225
sg246
g204
(g208
S'{\x14\xaeG\xe1z\xa4?'
p3226
tp3227
Rp3228
sg250
g204
(g208
S'R\xb8\x1e\x85\xebQ\xf4\xbf'
p3229
tp3230
Rp3231
sg254
g204
(g208
S'\xb8\x1e\x85\xebQ\xb8\x17\xc0'
p3232
tp3233
Rp3234
sg258
g204
(g208
S'{\x14\xaeG\xe1z\xa4?'
p3235
tp3236
Rp3237
sg262
g204
(g208
S'\xa4p=\n\xd7\xa3\xc0\xbf'
p3238
tp3239
Rp3240
sg266
g204
(g208
S'\x9a\x99\x99\x99\x99\x99\x13@'
p3241
tp3242
Rp3243
sg270
g204
(g208
S'{\x14\xaeG\xe1z\xa4?'
p3244
tp3245
Rp3246
sg274
g204
(g208
S'\xecQ\xb8\x1e\x85\xeb8@'
p3247
tp3248
Rp3249
sg278
g204
(g208
S'\x00\x00\x00\x00\x00\x80.@'
p3250
tp3251
Rp3252
sg282
g204
(g208
S')\\\x8f\xc2\xf5(\xcc?'
p3253
tp3254
Rp3255
sg286
g204
(g208
S'\xcd\xcc\xcc\xcc\xcc\xcc\x18\xc0'
p3256
tp3257
Rp3258
sg290
g204
(g208
S'\xaeG\xe1z\x14\xae.\xc0'
p3259
tp3260
Rp3261
sg294
g204
(g208
S'\x1f\x85\xebQ\xb8\xde7\xc0'
p3262
tp3263
Rp3264
sg298
g204
(g208
S'R\xb8\x1e\x85\xebQ\xf4\xbf'
p3265
tp3266
Rp3267
sg302
g204
(g208
S'\xe0z\x14\xaeG\xe16@'
p3268
tp3269
Rp3270
sg306
g204
(g208
S'\x00\x9a\x99\x99\x99\x99\xc9\xbf'
p3271
tp3272
Rp3273
sa(dp3274
g203
g204
(g208
S')\\\x8f\xc2\xf5(\xcc?'
p3275
tp3276
Rp3277
sg214
g204
(g208
S'\xa4p=\n\xd7\xa3\xc0\xbf'
p3278
tp3279
Rp3280
sg218
g204
(g208
S'\x00\x00\x00\x00\x00\x00\x1d@'
p3281
tp3282
Rp3283
sg222
g204
(g208
S'\x00{\x14\xaeG\xe1\xca\xbf'
p3284
tp3285
Rp3286
sg226
g204
(g208
S'\xb8\x1e\x85\xebQ\xb8\xde\xbf'
p3287
tp3288
Rp3289
sg230
g204
(g208
S'\xa4p=\n\xd7\xa3\xc0?'
p3290
tp3291
Rp3292
sg234
g204
(g208
S'333333\xc3\xbf'
p3293
tp3294
Rp3295
sg238
g204
(g208
S'\xcc\xcc\xcc\xcc\xcc\x0c7\xc0'
p3296
tp3297
Rp3298
sg242
g204
(g208
S'\x00\x9a\x99\x99\x99\x99\xc9\xbf'
p3299
tp3300
Rp3301
sg246
g204
(g208
S'{\x14\xaeG\xe1z\xa4?'
p3302
tp3303
Rp3304
sg250
g204
(g208
S'R\xb8\x1e\x85\xebQ\xf4\xbf'
p3305
tp3306
Rp3307
sg254
g204
(g208
S'\xb8\x1e\x85\xebQ\xb8\x17\xc0'
p3308
tp3309
Rp3310
sg258
g204
(g208
S'{\x14\xaeG\xe1z\xa4?'
p3311
tp3312
Rp3313
sg262
g204
(g208
S'\xa4p=\n\xd7\xa3\xc0\xbf'
p3314
tp3315
Rp3316
sg266
g204
(g208
S'\x9a\x99\x99\x99\x99\x99\x13@'
p3317
tp3318
Rp3319
sg270
g204
(g208
S'{\x14\xaeG\xe1z\xa4?'
p3320
tp3321
Rp3322
sg274
g204
(g208
S'\xecQ\xb8\x1e\x85\xeb8@'
p3323
tp3324
Rp3325
sg278
g204
(g208
S'\x14\xaeG\xe1zT2@'
p3326
tp3327
Rp3328
sg282
g204
(g208
S')\\\x8f\xc2\xf5(\xcc?'
p3329
tp3330
Rp3331
sg286
g204
(g208
S'\xcd\xcc\xcc\xcc\xcc\xcc\x18\xc0'
p3332
tp3333
Rp3334
sg290
g204
(g208
S'\x14\xaeG\xe1zT2\xc0'
p3335
tp3336
Rp3337
sg294
g204
(g208
S'\x1f\x85\xebQ\xb8\xde7\xc0'
p3338
tp3339
Rp3340
sg298
g204
(g208
S'R\xb8\x1e\x85\xebQ\xf4\xbf'
p3341
tp3342
Rp3343
sg302
g204
(g208
S'\xe0z\x14\xaeG\xe16@'
p3344
tp3345
Rp3346
sg306
g204
(g208
S'\x00\x9a\x99\x99\x99\x99\xc9\xbf'
p3347
tp3348
Rp3349
sasg69
(lp3350
(dp3351
S'l_elbow_y'
p3352
g204
(g208
S'{\x14\xaeG\xe1z\xa4\xbf'
p3353
tp3354
Rp3355
sS'r_elbow_y'
p3356
g204
(g208
S'333333\xf7\xbf'
p3357
tp3358
Rp3359
sS'r_knee_y'
p3360
g204
(g208
S'\x9a\x99\x99\x99\x99\x99\xd9?'
p3361
tp3362
Rp3363
sS'head_y'
p3364
g204
(g208
S'\x00\x00\x00\x00\x00\x00\xe0\xbf'
p3365
tp3366
Rp3367
sS'r_ankle_y'
p3368
g204
(g208
S'\x8f\xc2\xf5(\\\x8f\x0e@'
p3369
tp3370
Rp3371
sS'r_arm_z'
p3372
g204
(g208
S'\xa4p=\n\xd7\xa3\xc0\xbf'
p3373
tp3374
Rp3375
sS'head_z'
p3376
g204
(g208
S'333333\xc3?'
p3377
tp3378
Rp3379
sS'r_shoulder_x'
p3380
g204
(g208
S'p=\n\xd7\xa3p\x13\xc0'
p3381
tp3382
Rp3383
sS'r_shoulder_y'
p3384
g204
(g208
S'\x80\x99\x99\x99\x99\x99\xe1\xbf'
p3385
tp3386
Rp3387
sS'r_hip_z'
p3388
g204
(g208
S'\x9a\x99\x99\x99\x99\x99\xf1?'
p3389
tp3390
Rp3391
sS'r_hip_x'
p3392
g204
(g208
S'\x9a\x99\x99\x99\x99\x99\xd9?'
p3393
tp3394
Rp3395
sS'r_hip_y'
p3396
g204
(g208
S'\\\x8f\xc2\xf5(\\\x10\xc0'
p3397
tp3398
Rp3399
sS'l_arm_z'
p3400
g204
(g208
S'\xa4p=\n\xd7\xa3\xc0?'
p3401
tp3402
Rp3403
sS'l_hip_x'
p3404
g204
(g208
S'\n\xd7\xa3p=\n\x11\xc0'
p3405
tp3406
Rp3407
sS'l_hip_y'
p3408
g204
(g208
S'H\xe1z\x14\xaeG\x0b@'
p3409
tp3410
Rp3411
sS'l_hip_z'
p3412
g204
(g208
S'\xd7\xa3p=\n\xd7\xd3\xbf'
p3413
tp3414
Rp3415
sS'abs_x'
p3416
g204
(g208
S'\xf6(\\\x8f\xc2\xf5\x08\xc0'
p3417
tp3418
Rp3419
sS'abs_y'
p3420
g204
(g208
S'\xb8\x1e\x85\xebQ\xb8\x10@'
p3421
tp3422
Rp3423
sS'abs_z'
p3424
g204
(g208
S'=\n\xd7\xa3p=\xfe\xbf'
p3425
tp3426
Rp3427
sS'l_ankle_y'
p3428
g204
(g208
S'\\\x8f\xc2\xf5(\\\x10\xc0'
p3429
tp3430
Rp3431
sS'bust_y'
p3432
g204
(g208
S'333333\x01@'
p3433
tp3434
Rp3435
sS'bust_x'
p3436
g204
(g208
S')\\\x8f\xc2\xf5(\xf0?'
p3437
tp3438
Rp3439
sS'l_knee_y'
p3440
g204
(g208
S')\\\x8f\xc2\xf5(\xcc?'
p3441
tp3442
Rp3443
sS'l_shoulder_x'
p3444
g204
(g208
S'\xc0\xcc\xcc\xcc\xcc\xcc\x08@'
p3445
tp3446
Rp3447
sS'l_shoulder_y'
p3448
g204
(g208
S'\x80\x14\xaeG\xe1z\xe4\xbf'
p3449
tp3450
Rp3451
sa(dp3452
g3352
g204
(g208
S'\xa4p=\n\xd7\xa3\xc0?'
p3453
tp3454
Rp3455
sg3356
g204
(g208
S'\xa4p=\n\xd7\xa3\xc0?'
p3456
tp3457
Rp3458
sg3360
g204
(g208
S'\xd7\xa3p=\n\xd7\xd3?'
p3459
tp3460
Rp3461
sg3364
g204
(g208
S'\x00{\x14\xaeG\xe1\xca\xbf'
p3462
tp3463
Rp3464
sg3368
g204
(g208
S'\n\xd7\xa3p=\n\x11@'
p3465
tp3466
Rp3467
sg3372
g204
(g208
S'\xa4p=\n\xd7\xa3\xc0\xbf'
p3468
tp3469
Rp3470
sg3376
g204
(g208
S'333333\xc3?'
p3471
tp3472
Rp3473
sg3380
g204
(g208
S'\xc0\x1e\x85\xebQ\xb8\x12\xc0'
p3474
tp3475
Rp3476
sg3384
g204
(g208
S'\x00\x9a\x99\x99\x99\x99\xc9\xbf'
p3477
tp3478
Rp3479
sg3388
g204
(g208
S'{\x14\xaeG\xe1z\xa4\xbf'
p3480
tp3481
Rp3482
sg3392
g204
(g208
S'\xb8\x1e\x85\xebQ\xb8\xde?'
p3483
tp3484
Rp3485
sg3396
g204
(g208
S'\xecQ\xb8\x1e\x85\xeb\r\xc0'
p3486
tp3487
Rp3488
sg3400
g204
(g208
S'{\x14\xaeG\xe1z\xa4?'
p3489
tp3490
Rp3491
sg3404
g204
(g208
S'\xb8\x1e\x85\xebQ\xb8\xde\xbf'
p3492
tp3493
Rp3494
sg3408
g204
(g208
S'\xa4p=\n\xd7\xa3\x0c@'
p3495
tp3496
Rp3497
sg3412
g204
(g208
S'{\x14\xaeG\xe1z\xa4\xbf'
p3498
tp3499
Rp3500
sg3416
g204
(g208
S')\\\x8f\xc2\xf5(\xcc?'
p3501
tp3502
Rp3503
sg3420
g204
(g208
S'\xb8\x1e\x85\xebQ\xb8\xde?'
p3504
tp3505
Rp3506
sg3424
g204
(g208
S'{\x14\xaeG\xe1z\xa4?'
p3507
tp3508
Rp3509
sg3428
g204
(g208
S'H\xe1z\x14\xaeG\x0f\xc0'
p3510
tp3511
Rp3512
sg3432
g204
(g208
S'=\n\xd7\xa3p=\xe2?'
p3513
tp3514
Rp3515
sg3436
g204
(g208
S')\\\x8f\xc2\xf5(\xcc?'
p3516
tp3517
Rp3518
sg3440
g204
(g208
S'{\x14\xaeG\xe1z\xa4\xbf'
p3519
tp3520
Rp3521
sg3444
g204
(g208
S'p=\n\xd7\xa3p\x13@'
p3522
tp3523
Rp3524
sg3448
g204
(g208
S'\x00\\\x8f\xc2\xf5(\xbc\xbf'
p3525
tp3526
Rp3527
sa(dp3528
g3352
g204
(g208
S'\xa4p=\n\xd7\xa3\xc0?'
p3529
tp3530
Rp3531
sg3356
g204
(g208
S'\xa4p=\n\xd7\xa3\xc0?'
p3532
tp3533
Rp3534
sg3360
g204
(g208
S'\x1f\x85\xebQ\xb8\x1e\xe5?'
p3535
tp3536
Rp3537
sg3364
g204
(g208
S'\x00\x00\x00\x00\x00\x00\xe0\xbf'
p3538
tp3539
Rp3540
sg3368
g204
(g208
S'333333\x14@'
p3541
tp3542
Rp3543
sg3372
g204
(g208
S'\xa4p=\n\xd7\xa3\xc0\xbf'
p3544
tp3545
Rp3546
sg3376
g204
(g208
S'333333\xc3?'
p3547
tp3548
Rp3549
sg3380
g204
(g208
S'\x10\xaeG\xe1z\x14\x13\xc0'
p3550
tp3551
Rp3552
sg3384
g204
(g208
S'\x00\x9a\x99\x99\x99\x99\xc9\xbf'
p3553
tp3554
Rp3555
sg3388
g204
(g208
S'{\x14\xaeG\xe1z\xa4?'
p3556
tp3557
Rp3558
sg3392
g204
(g208
S'{\x14\xaeG\xe1z\xa4\xbf'
p3559
tp3560
Rp3561
sg3396
g204
(g208
S'\xecQ\xb8\x1e\x85\xeb\r\xc0'
p3562
tp3563
Rp3564
sg3400
g204
(g208
S'{\x14\xaeG\xe1z\xa4?'
p3565
tp3566
Rp3567
sg3404
g204
(g208
S'\xd7\xa3p=\n\xd7\xd3?'
p3568
tp3569
Rp3570
sg3408
g204
(g208
S'\x14\xaeG\xe1z\x14\x0e@'
p3571
tp3572
Rp3573
sg3412
g204
(g208
S'\xa4p=\n\xd7\xa3\xc0?'
p3574
tp3575
Rp3576
sg3416
g204
(g208
S'{\x14\xaeG\xe1z\xa4?'
p3577
tp3578
Rp3579
sg3420
g204
(g208
S'\x1f\x85\xebQ\xb8\x1e\xe5?'
p3580
tp3581
Rp3582
sg3424
g204
(g208
S'\xa4p=\n\xd7\xa3\xc0\xbf'
p3583
tp3584
Rp3585
sg3428
g204
(g208
S'\x85\xebQ\xb8\x1e\x85\x13\xc0'
p3586
tp3587
Rp3588
sg3432
g204
(g208
S'\xaeG\xe1z\x14\xae\xff\xbf'
p3589
tp3590
Rp3591
sg3436
g204
(g208
S'\xb8\x1e\x85\xebQ\xb8\xde?'
p3592
tp3593
Rp3594
sg3440
g204
(g208
S'\xb8\x1e\x85\xebQ\xb8\xde\xbf'
p3595
tp3596
Rp3597
sg3444
g204
(g208
S'\x10\xaeG\xe1z\x14\x13@'
p3598
tp3599
Rp3600
sg3448
g204
(g208
S'\x00P\xb8\x1e\x85\xeb\xb1?'
p3601
tp3602
Rp3603
sa(dp3604
g3352
g204
(g208
S'\xa4p=\n\xd7\xa3\xc0?'
p3605
tp3606
Rp3607
sg3356
g204
(g208
S'\xa4p=\n\xd7\xa3\xc0?'
p3608
tp3609
Rp3610
sg3360
g204
(g208
S'\x1f\x85\xebQ\xb8\x1e\xe5?'
p3611
tp3612
Rp3613
sg3364
g204
(g208
S'\x00\x00\x00\x00\x00\x00\xe0\xbf'
p3614
tp3615
Rp3616
sg3368
g204
(g208
S'333333\x14@'
p3617
tp3618
Rp3619
sg3372
g204
(g208
S'{\x14\xaeG\xe1z\xa4\xbf'
p3620
tp3621
Rp3622
sg3376
g204
(g208
S'333333\xc3?'
p3623
tp3624
Rp3625
sg3380
g204
(g208
S'\xc0\x1e\x85\xebQ\xb8\x12\xc0'
p3626
tp3627
Rp3628
sg3384
g204
(g208
S'\x00\x9a\x99\x99\x99\x99\xc9\xbf'
p3629
tp3630
Rp3631
sg3388
g204
(g208
S'\xa4p=\n\xd7\xa3\xc0?'
p3632
tp3633
Rp3634
sg3392
g204
(g208
S'{\x14\xaeG\xe1z\xa4\xbf'
p3635
tp3636
Rp3637
sg3396
g204
(g208
S'\xecQ\xb8\x1e\x85\xeb\r\xc0'
p3638
tp3639
Rp3640
sg3400
g204
(g208
S'\xa4p=\n\xd7\xa3\xc0?'
p3641
tp3642
Rp3643
sg3404
g204
(g208
S'\xd7\xa3p=\n\xd7\xd3?'
p3644
tp3645
Rp3646
sg3408
g204
(g208
S'\x14\xaeG\xe1z\x14\x0e@'
p3647
tp3648
Rp3649
sg3412
g204
(g208
S'\xa4p=\n\xd7\xa3\xc0?'
p3650
tp3651
Rp3652
sg3416
g204
(g208
S'{\x14\xaeG\xe1z\xa4?'
p3653
tp3654
Rp3655
sg3420
g204
(g208
S'\xcd\xcc\xcc\xcc\xcc\xcc\xfc?'
p3656
tp3657
Rp3658
sg3424
g204
(g208
S'\xa4p=\n\xd7\xa3\xc0\xbf'
p3659
tp3660
Rp3661
sg3428
g204
(g208
S'\x85\xebQ\xb8\x1e\x85\x13\xc0'
p3662
tp3663
Rp3664
sg3432
g204
(g208
S'\x9a\x99\x99\x99\x99\x99\x07\xc0'
p3665
tp3666
Rp3667
sg3436
g204
(g208
S'\xb8\x1e\x85\xebQ\xb8\xde?'
p3668
tp3669
Rp3670
sg3440
g204
(g208
S'\xb8\x1e\x85\xebQ\xb8\xde\xbf'
p3671
tp3672
Rp3673
sg3444
g204
(g208
S'p=\n\xd7\xa3p\x13@'
p3674
tp3675
Rp3676
sg3448
g204
(g208
S'\x00\\\x8f\xc2\xf5(\xbc\xbf'
p3677
tp3678
Rp3679
sa(dp3680
g3352
g204
(g208
S'\xa4p=\n\xd7\xa3\xc0?'
p3681
tp3682
Rp3683
sg3356
g204
(g208
S'{\x14\xaeG\xe1z\xa4?'
p3684
tp3685
Rp3686
sg3360
g204
(g208
S'\x1f\x85\xebQ\xb8\x1e\xe5?'
p3687
tp3688
Rp3689
sg3364
g204
(g208
S'\x00{\x14\xaeG\xe1\xca\xbf'
p3690
tp3691
Rp3692
sg3368
g204
(g208
S'\x8f\xc2\xf5(\\\x8f\x14@'
p3693
tp3694
Rp3695
sg3372
g204
(g208
S'{\x14\xaeG\xe1z\xa4\xbf'
p3696
tp3697
Rp3698
sg3376
g204
(g208
S'333333\xc3\xbf'
p3699
tp3700
Rp3701
sg3380
g204
(g208
S'\x10\xaeG\xe1z\x14\x13\xc0'
p3702
tp3703
Rp3704
sg3384
g204
(g208
S'\x00\x9a\x99\x99\x99\x99\xc9\xbf'
p3705
tp3706
Rp3707
sg3388
g204
(g208
S'{\x14\xaeG\xe1z\xa4?'
p3708
tp3709
Rp3710
sg3392
g204
(g208
S'{\x14\xaeG\xe1z\xa4\xbf'
p3711
tp3712
Rp3713
sg3396
g204
(g208
S'\xecQ\xb8\x1e\x85\xeb\r\xc0'
p3714
tp3715
Rp3716
sg3400
g204
(g208
S'\xa4p=\n\xd7\xa3\xc0?'
p3717
tp3718
Rp3719
sg3404
g204
(g208
S'\xd7\xa3p=\n\xd7\xd3?'
p3720
tp3721
Rp3722
sg3408
g204
(g208
S'\\\x8f\xc2\xf5(\\\r@'
p3723
tp3724
Rp3725
sg3412
g204
(g208
S'{\x14\xaeG\xe1z\xa4?'
p3726
tp3727
Rp3728
sg3416
g204
(g208
S'{\x14\xaeG\xe1z\xa4?'
p3729
tp3730
Rp3731
sg3420
g204
(g208
S'\xe1z\x14\xaeG\xe1\x06@'
p3732
tp3733
Rp3734
sg3424
g204
(g208
S'{\x14\xaeG\xe1z\xa4\xbf'
p3735
tp3736
Rp3737
sg3428
g204
(g208
S'\x85\xebQ\xb8\x1e\x85\x13\xc0'
p3738
tp3739
Rp3740
sg3432
g204
(g208
S'H\xe1z\x14\xaeG\x0f\xc0'
p3741
tp3742
Rp3743
sg3436
g204
(g208
S'\xb8\x1e\x85\xebQ\xb8\xde?'
p3744
tp3745
Rp3746
sg3440
g204
(g208
S'\xb8\x1e\x85\xebQ\xb8\xde\xbf'
p3747
tp3748
Rp3749
sg3444
g204
(g208
S'p=\n\xd7\xa3p\x13@'
p3750
tp3751
Rp3752
sg3448
g204
(g208
S'\x00P\xb8\x1e\x85\xeb\xb1?'
p3753
tp3754
Rp3755
sa(dp3756
g3352
g204
(g208
S'\xa4p=\n\xd7\xa3\xc0?'
p3757
tp3758
Rp3759
sg3356
g204
(g208
S'{\x14\xaeG\xe1z\xa4?'
p3760
tp3761
Rp3762
sg3360
g204
(g208
S'\x1f\x85\xebQ\xb8\x1e\xe5?'
p3763
tp3764
Rp3765
sg3364
g204
(g208
S'\x00\x00\x00\x00\x00\x00\xe0\xbf'
p3766
tp3767
Rp3768
sg3368
g204
(g208
S'333333\x14@'
p3769
tp3770
Rp3771
sg3372
g204
(g208
S'\xa4p=\n\xd7\xa3\xc0\xbf'
p3772
tp3773
Rp3774
sg3376
g204
(g208
S'333333\xc3?'
p3775
tp3776
Rp3777
sg3380
g204
(g208
S'\xc0\x1e\x85\xebQ\xb8\x12\xc0'
p3778
tp3779
Rp3780
sg3384
g204
(g208
S'\x00\x9a\x99\x99\x99\x99\xc9\xbf'
p3781
tp3782
Rp3783
sg3388
g204
(g208
S'{\x14\xaeG\xe1z\xa4?'
p3784
tp3785
Rp3786
sg3392
g204
(g208
S'{\x14\xaeG\xe1z\xa4\xbf'
p3787
tp3788
Rp3789
sg3396
g204
(g208
S'\xecQ\xb8\x1e\x85\xeb\r\xc0'
p3790
tp3791
Rp3792
sg3400
g204
(g208
S'{\x14\xaeG\xe1z\xa4?'
p3793
tp3794
Rp3795
sg3404
g204
(g208
S'\x9a\x99\x99\x99\x99\x99\xd9?'
p3796
tp3797
Rp3798
sg3408
g204
(g208
S'\\\x8f\xc2\xf5(\\\r@'
p3799
tp3800
Rp3801
sg3412
g204
(g208
S'\xa4p=\n\xd7\xa3\xc0?'
p3802
tp3803
Rp3804
sg3416
g204
(g208
S'{\x14\xaeG\xe1z\xa4?'
p3805
tp3806
Rp3807
sg3420
g204
(g208
S'H\xe1z\x14\xaeG\x0f@'
p3808
tp3809
Rp3810
sg3424
g204
(g208
S'{\x14\xaeG\xe1z\xa4\xbf'
p3811
tp3812
Rp3813
sg3428
g204
(g208
S'\x85\xebQ\xb8\x1e\x85\x13\xc0'
p3814
tp3815
Rp3816
sg3432
g204
(g208
S'\xe1z\x14\xaeG\xe1\x13\xc0'
p3817
tp3818
Rp3819
sg3436
g204
(g208
S'\xb8\x1e\x85\xebQ\xb8\xde?'
p3820
tp3821
Rp3822
sg3440
g204
(g208
S'\xb8\x1e\x85\xebQ\xb8\xde\xbf'
p3823
tp3824
Rp3825
sg3444
g204
(g208
S'p=\n\xd7\xa3p\x13@'
p3826
tp3827
Rp3828
sg3448
g204
(g208
S'\x00\\\x8f\xc2\xf5(\xbc\xbf'
p3829
tp3830
Rp3831
sa(dp3832
g3352
g204
(g208
S'\xa4p=\n\xd7\xa3\xc0?'
p3833
tp3834
Rp3835
sg3356
g204
(g208
S'{\x14\xaeG\xe1z\xa4?'
p3836
tp3837
Rp3838
sg3360
g204
(g208
S'\x1f\x85\xebQ\xb8\x1e\xe5?'
p3839
tp3840
Rp3841
sg3364
g204
(g208
S'\x00\x00\x00\x00\x00\x00\xe0\xbf'
p3842
tp3843
Rp3844
sg3368
g204
(g208
S'\x8f\xc2\xf5(\\\x8f\x14@'
p3845
tp3846
Rp3847
sg3372
g204
(g208
S'\xa4p=\n\xd7\xa3\xc0\xbf'
p3848
tp3849
Rp3850
sg3376
g204
(g208
S'333333\xc3?'
p3851
tp3852
Rp3853
sg3380
g204
(g208
S'\x10\xaeG\xe1z\x14\x13\xc0'
p3854
tp3855
Rp3856
sg3384
g204
(g208
S'\x00\x9a\x99\x99\x99\x99\xc9\xbf'
p3857
tp3858
Rp3859
sg3388
g204
(g208
S'{\x14\xaeG\xe1z\xa4?'
p3860
tp3861
Rp3862
sg3392
g204
(g208
S'\xa4p=\n\xd7\xa3\xc0\xbf'
p3863
tp3864
Rp3865
sg3396
g204
(g208
S'\xecQ\xb8\x1e\x85\xeb\r\xc0'
p3866
tp3867
Rp3868
sg3400
g204
(g208
S'\xa4p=\n\xd7\xa3\xc0?'
p3869
tp3870
Rp3871
sg3404
g204
(g208
S'\x9a\x99\x99\x99\x99\x99\xd9?'
p3872
tp3873
Rp3874
sg3408
g204
(g208
S'\xa4p=\n\xd7\xa3\x0c@'
p3875
tp3876
Rp3877
sg3412
g204
(g208
S'\xa4p=\n\xd7\xa3\xc0?'
p3878
tp3879
Rp3880
sg3416
g204
(g208
S'{\x14\xaeG\xe1z\xa4?'
p3881
tp3882
Rp3883
sg3420
g204
(g208
S'\xa4p=\n\xd7\xa3\x15@'
p3884
tp3885
Rp3886
sg3424
g204
(g208
S'\xa4p=\n\xd7\xa3\xc0\xbf'
p3887
tp3888
Rp3889
sg3428
g204
(g208
S'\x85\xebQ\xb8\x1e\x85\x13\xc0'
p3890
tp3891
Rp3892
sg3432
g204
(g208
S'\xb8\x1e\x85\xebQ\xb8\x17\xc0'
p3893
tp3894
Rp3895
sg3436
g204
(g208
S'\xb8\x1e\x85\xebQ\xb8\xde?'
p3896
tp3897
Rp3898
sg3440
g204
(g208
S'=\n\xd7\xa3p=\xe2\xbf'
p3899
tp3900
Rp3901
sg3444
g204
(g208
S'p=\n\xd7\xa3p\x13@'
p3902
tp3903
Rp3904
sg3448
g204
(g208
S'\x00\\\x8f\xc2\xf5(\xbc\xbf'
p3905
tp3906
Rp3907
sa(dp3908
g3352
g204
(g208
S'\xa4p=\n\xd7\xa3\xc0?'
p3909
tp3910
Rp3911
sg3356
g204
(g208
S'{\x14\xaeG\xe1z\xa4?'
p3912
tp3913
Rp3914
sg3360
g204
(g208
S'\x1f\x85\xebQ\xb8\x1e\xe5?'
p3915
tp3916
Rp3917
sg3364
g204
(g208
S'\x00\x00\x00\x00\x00\x00\xe0\xbf'
p3918
tp3919
Rp3920
sg3368
g204
(g208
S'333333\x14@'
p3921
tp3922
Rp3923
sg3372
g204
(g208
S'\xa4p=\n\xd7\xa3\xc0\xbf'
p3924
tp3925
Rp3926
sg3376
g204
(g208
S'333333\xc3?'
p3927
tp3928
Rp3929
sg3380
g204
(g208
S'\x10\xaeG\xe1z\x14\x13\xc0'
p3930
tp3931
Rp3932
sg3384
g204
(g208
S'\x00\x9a\x99\x99\x99\x99\xc9\xbf'
p3933
tp3934
Rp3935
sg3388
g204
(g208
S'{\x14\xaeG\xe1z\xa4?'
p3936
tp3937
Rp3938
sg3392
g204
(g208
S'\xa4p=\n\xd7\xa3\xc0\xbf'
p3939
tp3940
Rp3941
sg3396
g204
(g208
S'\x8f\xc2\xf5(\\\x8f\x0e\xc0'
p3942
tp3943
Rp3944
sg3400
g204
(g208
S'{\x14\xaeG\xe1z\xa4?'
p3945
tp3946
Rp3947
sg3404
g204
(g208
S'\x9a\x99\x99\x99\x99\x99\xd9?'
p3948
tp3949
Rp3950
sg3408
g204
(g208
S'\xa4p=\n\xd7\xa3\x0c@'
p3951
tp3952
Rp3953
sg3412
g204
(g208
S'\xa4p=\n\xd7\xa3\xc0?'
p3954
tp3955
Rp3956
sg3416
g204
(g208
S'{\x14\xaeG\xe1z\xa4?'
p3957
tp3958
Rp3959
sg3420
g204
(g208
S'333333\x1a@'
p3960
tp3961
Rp3962
sg3424
g204
(g208
S'\xa4p=\n\xd7\xa3\xc0\xbf'
p3963
tp3964
Rp3965
sg3428
g204
(g208
S'\x85\xebQ\xb8\x1e\x85\x13\xc0'
p3966
tp3967
Rp3968
sg3432
g204
(g208
S'\xf6(\\\x8f\xc2\xf5\x1b\xc0'
p3969
tp3970
Rp3971
sg3436
g204
(g208
S'\xb8\x1e\x85\xebQ\xb8\xde?'
p3972
tp3973
Rp3974
sg3440
g204
(g208
S'=\n\xd7\xa3p=\xe2\xbf'
p3975
tp3976
Rp3977
sg3444
g204
(g208
S'p=\n\xd7\xa3p\x13@'
p3978
tp3979
Rp3980
sg3448
g204
(g208
S'\x00P\xb8\x1e\x85\xeb\xb1?'
p3981
tp3982
Rp3983
sa(dp3984
g3352
g204
(g208
S'\xa4p=\n\xd7\xa3\xc0?'
p3985
tp3986
Rp3987
sg3356
g204
(g208
S'{\x14\xaeG\xe1z\xa4?'
p3988
tp3989
Rp3990
sg3360
g204
(g208
S'\x1f\x85\xebQ\xb8\x1e\xe5?'
p3991
tp3992
Rp3993
sg3364
g204
(g208
S'\x00{\x14\xaeG\xe1\xca\xbf'
p3994
tp3995
Rp3996
sg3368
g204
(g208
S'333333\x14@'
p3997
tp3998
Rp3999
sg3372
g204
(g208
S'\xa4p=\n\xd7\xa3\xc0\xbf'
p4000
tp4001
Rp4002
sg3376
g204
(g208
S'333333\xc3?'
p4003
tp4004
Rp4005
sg3380
g204
(g208
S'\x10\xaeG\xe1z\x14\x13\xc0'
p4006
tp4007
Rp4008
sg3384
g204
(g208
S'\x00\x9a\x99\x99\x99\x99\xc9\xbf'
p4009
tp4010
Rp4011
sg3388
g204
(g208
S'{\x14\xaeG\xe1z\xa4?'
p4012
tp4013
Rp4014
sg3392
g204
(g208
S'\xa4p=\n\xd7\xa3\xc0\xbf'
p4015
tp4016
Rp4017
sg3396
g204
(g208
S'\x8f\xc2\xf5(\\\x8f\x0e\xc0'
p4018
tp4019
Rp4020
sg3400
g204
(g208
S'{\x14\xaeG\xe1z\xa4?'
p4021
tp4022
Rp4023
sg3404
g204
(g208
S'\x9a\x99\x99\x99\x99\x99\xd9?'
p4024
tp4025
Rp4026
sg3408
g204
(g208
S'\xecQ\xb8\x1e\x85\xeb\x0b@'
p4027
tp4028
Rp4029
sg3412
g204
(g208
S'\xa4p=\n\xd7\xa3\xc0?'
p4030
tp4031
Rp4032
sg3416
g204
(g208
S'{\x14\xaeG\xe1z\xa4?'
p4033
tp4034
Rp4035
sg3420
g204
(g208
S'\xc3\xf5(\\\x8f\xc2\x1e@'
p4036
tp4037
Rp4038
sg3424
g204
(g208
S'{\x14\xaeG\xe1z\xa4\xbf'
p4039
tp4040
Rp4041
sg3428
g204
(g208
S'\x85\xebQ\xb8\x1e\x85\x13\xc0'
p4042
tp4043
Rp4044
sg3432
g204
(g208
S'\xd7\xa3p=\n\xd7\x1f\xc0'
p4045
tp4046
Rp4047
sg3436
g204
(g208
S'\xb8\x1e\x85\xebQ\xb8\xde?'
p4048
tp4049
Rp4050
sg3440
g204
(g208
S'\x1f\x85\xebQ\xb8\x1e\xe5\xbf'
p4051
tp4052
Rp4053
sg3444
g204
(g208
S'p=\n\xd7\xa3p\x13@'
p4054
tp4055
Rp4056
sg3448
g204
(g208
S'\x00P\xb8\x1e\x85\xeb\xb1?'
p4057
tp4058
Rp4059
sa(dp4060
g3352
g204
(g208
S')\\\x8f\xc2\xf5(\xcc?'
p4061
tp4062
Rp4063
sg3356
g204
(g208
S'\xa4p=\n\xd7\xa3\xc0?'
p4064
tp4065
Rp4066
sg3360
g204
(g208
S'=\n\xd7\xa3p=\xe2?'
p4067
tp4068
Rp4069
sg3364
g204
(g208
S'\x00\x00\x00\x00\x00\x00\xe0\xbf'
p4070
tp4071
Rp4072
sg3368
g204
(g208
S'333333\x14@'
p4073
tp4074
Rp4075
sg3372
g204
(g208
S'\xa4p=\n\xd7\xa3\xc0\xbf'
p4076
tp4077
Rp4078
sg3376
g204
(g208
S'333333\xc3?'
p4079
tp4080
Rp4081
sg3380
g204
(g208
S'\x10\xaeG\xe1z\x14\x13\xc0'
p4082
tp4083
Rp4084
sg3384
g204
(g208
S'\x00\x9a\x99\x99\x99\x99\xc9\xbf'
p4085
tp4086
Rp4087
sg3388
g204
(g208
S'{\x14\xaeG\xe1z\xa4?'
p4088
tp4089
Rp4090
sg3392
g204
(g208
S'\xa4p=\n\xd7\xa3\xc0\xbf'
p4091
tp4092
Rp4093
sg3396
g204
(g208
S'H\xe1z\x14\xaeG\x0f\xc0'
p4094
tp4095
Rp4096
sg3400
g204
(g208
S'{\x14\xaeG\xe1z\xa4?'
p4097
tp4098
Rp4099
sg3404
g204
(g208
S'\x9a\x99\x99\x99\x99\x99\xd9?'
p4100
tp4101
Rp4102
sg3408
g204
(g208
S'\xa4p=\n\xd7\xa3\x0c@'
p4103
tp4104
Rp4105
sg3412
g204
(g208
S'\xa4p=\n\xd7\xa3\xc0?'
p4106
tp4107
Rp4108
sg3416
g204
(g208
S'{\x14\xaeG\xe1z\xa4?'
p4109
tp4110
Rp4111
sg3420
g204
(g208
S'\x85\xebQ\xb8\x1e\x05"@'
p4112
tp4113
Rp4114
sg3424
g204
(g208
S'{\x14\xaeG\xe1z\xa4\xbf'
p4115
tp4116
Rp4117
sg3428
g204
(g208
S'\x85\xebQ\xb8\x1e\x85\x13\xc0'
p4118
tp4119
Rp4120
sg3432
g204
(g208
S'\xd7\xa3p=\n\xd7!\xc0'
p4121
tp4122
Rp4123
sg3436
g204
(g208
S'\xb8\x1e\x85\xebQ\xb8\xde?'
p4124
tp4125
Rp4126
sg3440
g204
(g208
S'\x1f\x85\xebQ\xb8\x1e\xe5\xbf'
p4127
tp4128
Rp4129
sg3444
g204
(g208
S'p=\n\xd7\xa3p\x13@'
p4130
tp4131
Rp4132
sg3448
g204
(g208
S'\x00\\\x8f\xc2\xf5(\xbc\xbf'
p4133
tp4134
Rp4135
sa(dp4136
g3352
g204
(g208
S'\xa4p=\n\xd7\xa3\xc0?'
p4137
tp4138
Rp4139
sg3356
g204
(g208
S'{\x14\xaeG\xe1z\xa4?'
p4140
tp4141
Rp4142
sg3360
g204
(g208
S'\xb8\x1e\x85\xebQ\xb8\xde?'
p4143
tp4144
Rp4145
sg3364
g204
(g208
S'\x00\x00\x00\x00\x00\x00\xe0\xbf'
p4146
tp4147
Rp4148
sg3368
g204
(g208
S'333333\x14@'
p4149
tp4150
Rp4151
sg3372
g204
(g208
S'\xa4p=\n\xd7\xa3\xc0\xbf'
p4152
tp4153
Rp4154
sg3376
g204
(g208
S')\\\x8f\xc2\xf5(\xdc?'
p4155
tp4156
Rp4157
sg3380
g204
(g208
S'\x10\xaeG\xe1z\x14\x13\xc0'
p4158
tp4159
Rp4160
sg3384
g204
(g208
S'\x00\x9a\x99\x99\x99\x99\xc9\xbf'
p4161
tp4162
Rp4163
sg3388
g204
(g208
S'{\x14\xaeG\xe1z\xa4?'
p4164
tp4165
Rp4166
sg3392
g204
(g208
S'\xa4p=\n\xd7\xa3\xc0\xbf'
p4167
tp4168
Rp4169
sg3396
g204
(g208
S'H\xe1z\x14\xaeG\x0f\xc0'
p4170
tp4171
Rp4172
sg3400
g204
(g208
S'{\x14\xaeG\xe1z\xa4?'
p4173
tp4174
Rp4175
sg3404
g204
(g208
S'\xd7\xa3p=\n\xd7\xd3?'
p4176
tp4177
Rp4178
sg3408
g204
(g208
S'\xecQ\xb8\x1e\x85\xeb\x0b@'
p4179
tp4180
Rp4181
sg3412
g204
(g208
S'\xa4p=\n\xd7\xa3\xc0?'
p4182
tp4183
Rp4184
sg3416
g204
(g208
S'{\x14\xaeG\xe1z\xa4?'
p4185
tp4186
Rp4187
sg3420
g204
(g208
S'H\xe1z\x14\xae\xc7#@'
p4188
tp4189
Rp4190
sg3424
g204
(g208
S'\xa4p=\n\xd7\xa3\xc0\xbf'
p4191
tp4192
Rp4193
sg3428
g204
(g208
S'\xe1z\x14\xaeG\xe1\x13\xc0'
p4194
tp4195
Rp4196
sg3432
g204
(g208
S'H\xe1z\x14\xae\xc7#\xc0'
p4197
tp4198
Rp4199
sg3436
g204
(g208
S'\xb8\x1e\x85\xebQ\xb8\xde?'
p4200
tp4201
Rp4202
sg3440
g204
(g208
S'\xe1z\x14\xaeG\xe1\xea\xbf'
p4203
tp4204
Rp4205
sg3444
g204
(g208
S'p=\n\xd7\xa3p\x13@'
p4206
tp4207
Rp4208
sg3448
g204
(g208
S'\x00\\\x8f\xc2\xf5(\xbc\xbf'
p4209
tp4210
Rp4211
sa(dp4212
g3352
g204
(g208
S'\xa4p=\n\xd7\xa3\xc0?'
p4213
tp4214
Rp4215
sg3356
g204
(g208
S'\xa4p=\n\xd7\xa3\xc0?'
p4216
tp4217
Rp4218
sg3360
g204
(g208
S'\xa4p=\n\xd7\xa3\xc0?'
p4219
tp4220
Rp4221
sg3364
g204
(g208
S'\x00\x00\x00\x00\x00\x00\xe0\xbf'
p4222
tp4223
Rp4224
sg3368
g204
(g208
S'333333\x14@'
p4225
tp4226
Rp4227
sg3372
g204
(g208
S'\xa4p=\n\xd7\xa3\xc0\xbf'
p4228
tp4229
Rp4230
sg3376
g204
(g208
S'333333\xc3?'
p4231
tp4232
Rp4233
sg3380
g204
(g208
S'\x10\xaeG\xe1z\x14\x13\xc0'
p4234
tp4235
Rp4236
sg3384
g204
(g208
S'\x00\x9a\x99\x99\x99\x99\xc9\xbf'
p4237
tp4238
Rp4239
sg3388
g204
(g208
S'\xa4p=\n\xd7\xa3\xc0?'
p4240
tp4241
Rp4242
sg3392
g204
(g208
S'\xa4p=\n\xd7\xa3\xc0\xbf'
p4243
tp4244
Rp4245
sg3396
g204
(g208
S'H\xe1z\x14\xaeG\x0f\xc0'
p4246
tp4247
Rp4248
sg3400
g204
(g208
S'{\x14\xaeG\xe1z\xa4?'
p4249
tp4250
Rp4251
sg3404
g204
(g208
S'\x9a\x99\x99\x99\x99\x99\xd9?'
p4252
tp4253
Rp4254
sg3408
g204
(g208
S'\xecQ\xb8\x1e\x85\xeb\x0b@'
p4255
tp4256
Rp4257
sg3412
g204
(g208
S'\xa4p=\n\xd7\xa3\xc0?'
p4258
tp4259
Rp4260
sg3416
g204
(g208
S'{\x14\xaeG\xe1z\xa4?'
p4261
tp4262
Rp4263
sg3420
g204
(g208
S'=\n\xd7\xa3p=&@'
p4264
tp4265
Rp4266
sg3424
g204
(g208
S'\xa4p=\n\xd7\xa3\xc0\xbf'
p4267
tp4268
Rp4269
sg3428
g204
(g208
S'333333\x14\xc0'
p4270
tp4271
Rp4272
sg3432
g204
(g208
S'\xb8\x1e\x85\xebQ\xb8%\xc0'
p4273
tp4274
Rp4275
sg3436
g204
(g208
S'\xb8\x1e\x85\xebQ\xb8\xde?'
p4276
tp4277
Rp4278
sg3440
g204
(g208
S')\\\x8f\xc2\xf5(\xf0\xbf'
p4279
tp4280
Rp4281
sg3444
g204
(g208
S'p=\n\xd7\xa3p\x13@'
p4282
tp4283
Rp4284
sg3448
g204
(g208
S'\x00\\\x8f\xc2\xf5(\xbc\xbf'
p4285
tp4286
Rp4287
sa(dp4288
g3352
g204
(g208
S'\xa4p=\n\xd7\xa3\xc0?'
p4289
tp4290
Rp4291
sg3356
g204
(g208
S'\xa4p=\n\xd7\xa3\xc0?'
p4292
tp4293
Rp4294
sg3360
g204
(g208
S')\\\x8f\xc2\xf5(\xcc\xbf'
p4295
tp4296
Rp4297
sg3364
g204
(g208
S'\x00{\x14\xaeG\xe1\xca\xbf'
p4298
tp4299
Rp4300
sg3368
g204
(g208
S')\\\x8f\xc2\xf5(\x13@'
p4301
tp4302
Rp4303
sg3372
g204
(g208
S'{\x14\xaeG\xe1z\xa4\xbf'
p4304
tp4305
Rp4306
sg3376
g204
(g208
S'333333\xc3?'
p4307
tp4308
Rp4309
sg3380
g204
(g208
S'\x10\xaeG\xe1z\x14\x13\xc0'
p4310
tp4311
Rp4312
sg3384
g204
(g208
S'\x00\x9a\x99\x99\x99\x99\xc9\xbf'
p4313
tp4314
Rp4315
sg3388
g204
(g208
S'\xa4p=\n\xd7\xa3\xc0?'
p4316
tp4317
Rp4318
sg3392
g204
(g208
S'\xa4p=\n\xd7\xa3\xc0\xbf'
p4319
tp4320
Rp4321
sg3396
g204
(g208
S'H\xe1z\x14\xaeG\x0f\xc0'
p4322
tp4323
Rp4324
sg3400
g204
(g208
S'\xa4p=\n\xd7\xa3\xc0?'
p4325
tp4326
Rp4327
sg3404
g204
(g208
S'\xb8\x1e\x85\xebQ\xb8\xde?'
p4328
tp4329
Rp4330
sg3408
g204
(g208
S'\xecQ\xb8\x1e\x85\xeb\x0b@'
p4331
tp4332
Rp4333
sg3412
g204
(g208
S'\xa4p=\n\xd7\xa3\xc0?'
p4334
tp4335
Rp4336
sg3416
g204
(g208
S'{\x14\xaeG\xe1z\xa4?'
p4337
tp4338
Rp4339
sg3420
g204
(g208
S"\xa4p=\n\xd7\xa3'@"
p4340
tp4341
Rp4342
sg3424
g204
(g208
S'\xa4p=\n\xd7\xa3\xc0\xbf'
p4343
tp4344
Rp4345
sg3428
g204
(g208
S'\xecQ\xb8\x1e\x85\xeb\x14\xc0'
p4346
tp4347
Rp4348
sg3432
g204
(g208
S"R\xb8\x1e\x85\xeb\xd1'\xc0"
p4349
tp4350
Rp4351
sg3436
g204
(g208
S'\xb8\x1e\x85\xebQ\xb8\xde?'
p4352
tp4353
Rp4354
sg3440
g204
(g208
S'\n\xd7\xa3p=\n\xf3\xbf'
p4355
tp4356
Rp4357
sg3444
g204
(g208
S'p=\n\xd7\xa3p\x13@'
p4358
tp4359
Rp4360
sg3448
g204
(g208
S'\x00\\\x8f\xc2\xf5(\xbc\xbf'
p4361
tp4362
Rp4363
sa(dp4364
g3352
g204
(g208
S'\xa4p=\n\xd7\xa3\xc0?'
p4365
tp4366
Rp4367
sg3356
g204
(g208
S'{\x14\xaeG\xe1z\xa4?'
p4368
tp4369
Rp4370
sg3360
g204
(g208
S'\xb8\x1e\x85\xebQ\xb8\xde\xbf'
p4371
tp4372
Rp4373
sg3364
g204
(g208
S'\x00{\x14\xaeG\xe1\xca\xbf'
p4374
tp4375
Rp4376
sg3368
g204
(g208
S'ffffff\n@'
p4377
tp4378
Rp4379
sg3372
g204
(g208
S'\xa4p=\n\xd7\xa3\xc0\xbf'
p4380
tp4381
Rp4382
sg3376
g204
(g208
S'333333\xc3?'
p4383
tp4384
Rp4385
sg3380
g204
(g208
S'\xc0\x1e\x85\xebQ\xb8\x12\xc0'
p4386
tp4387
Rp4388
sg3384
g204
(g208
S'\x00\xc3\xf5(\\\x8f\xd2\xbf'
p4389
tp4390
Rp4391
sg3388
g204
(g208
S'\xa4p=\n\xd7\xa3\xc0?'
p4392
tp4393
Rp4394
sg3392
g204
(g208
S'\xa4p=\n\xd7\xa3\xc0\xbf'
p4395
tp4396
Rp4397
sg3396
g204
(g208
S'\\\x8f\xc2\xf5(\\\x10\xc0'
p4398
tp4399
Rp4400
sg3400
g204
(g208
S'{\x14\xaeG\xe1z\xa4?'
p4401
tp4402
Rp4403
sg3404
g204
(g208
S'\xb8\x1e\x85\xebQ\xb8\xde?'
p4404
tp4405
Rp4406
sg3408
g204
(g208
S'\xecQ\xb8\x1e\x85\xeb\x0b@'
p4407
tp4408
Rp4409
sg3412
g204
(g208
S'\xa4p=\n\xd7\xa3\xc0?'
p4410
tp4411
Rp4412
sg3416
g204
(g208
S'{\x14\xaeG\xe1z\xa4?'
p4413
tp4414
Rp4415
sg3420
g204
(g208
S'\xc3\xf5(\\\x8f\xc2)@'
p4416
tp4417
Rp4418
sg3424
g204
(g208
S'\xa4p=\n\xd7\xa3\xc0\xbf'
p4419
tp4420
Rp4421
sg3428
g204
(g208
S')\\\x8f\xc2\xf5(\x19\xc0'
p4422
tp4423
Rp4424
sg3432
g204
(g208
S'\xc3\xf5(\\\x8f\xc2)\xc0'
p4425
tp4426
Rp4427
sg3436
g204
(g208
S'\xb8\x1e\x85\xebQ\xb8\xde?'
p4428
tp4429
Rp4430
sg3440
g204
(g208
S'\\\x8f\xc2\xf5(\\\xfb\xbf'
p4431
tp4432
Rp4433
sg3444
g204
(g208
S'p=\n\xd7\xa3p\x13@'
p4434
tp4435
Rp4436
sg3448
g204
(g208
S'\x00\\\x8f\xc2\xf5(\xbc\xbf'
p4437
tp4438
Rp4439
sa(dp4440
g3352
g204
(g208
S'\xa4p=\n\xd7\xa3\xc0?'
p4441
tp4442
Rp4443
sg3356
g204
(g208
S'{\x14\xaeG\xe1z\xa4?'
p4444
tp4445
Rp4446
sg3360
g204
(g208
S'\xb8\x1e\x85\xebQ\xb8\xde\xbf'
p4447
tp4448
Rp4449
sg3364
g204
(g208
S'\x00{\x14\xaeG\xe1\xca\xbf'
p4450
tp4451
Rp4452
sg3368
g204
(g208
S'\xaeG\xe1z\x14\xae\t@'
p4453
tp4454
Rp4455
sg3372
g204
(g208
S'\xa4p=\n\xd7\xa3\xc0\xbf'
p4456
tp4457
Rp4458
sg3376
g204
(g208
S'333333\xc3?'
p4459
tp4460
Rp4461
sg3380
g204
(g208
S'\x10\xaeG\xe1z\x14\x13\xc0'
p4462
tp4463
Rp4464
sg3384
g204
(g208
S'\x00\x9a\x99\x99\x99\x99\xc9\xbf'
p4465
tp4466
Rp4467
sg3388
g204
(g208
S'\xa4p=\n\xd7\xa3\xc0?'
p4468
tp4469
Rp4470
sg3392
g204
(g208
S')\\\x8f\xc2\xf5(\xcc\xbf'
p4471
tp4472
Rp4473
sg3396
g204
(g208
S'\xb8\x1e\x85\xebQ\xb8\x10\xc0'
p4474
tp4475
Rp4476
sg3400
g204
(g208
S'{\x14\xaeG\xe1z\xa4?'
p4477
tp4478
Rp4479
sg3404
g204
(g208
S'\xb8\x1e\x85\xebQ\xb8\xde?'
p4480
tp4481
Rp4482
sg3408
g204
(g208
S'\xecQ\xb8\x1e\x85\xeb\x0b@'
p4483
tp4484
Rp4485
sg3412
g204
(g208
S'\xa4p=\n\xd7\xa3\xc0?'
p4486
tp4487
Rp4488
sg3416
g204
(g208
S'{\x14\xaeG\xe1z\xa4\xbf'
p4489
tp4490
Rp4491
sg3420
g204
(g208
S'33333\xb3+@'
p4492
tp4493
Rp4494
sg3424
g204
(g208
S'{\x14\xaeG\xe1z\xa4\xbf'
p4495
tp4496
Rp4497
sg3428
g204
(g208
S')\\\x8f\xc2\xf5(\x19\xc0'
p4498
tp4499
Rp4500
sg3432
g204
(g208
S'33333\xb3+\xc0'
p4501
tp4502
Rp4503
sg3436
g204
(g208
S'\xb8\x1e\x85\xebQ\xb8\xde?'
p4504
tp4505
Rp4506
sg3440
g204
(g208
S'\\\x8f\xc2\xf5(\\\xfb\xbf'
p4507
tp4508
Rp4509
sg3444
g204
(g208
S'p=\n\xd7\xa3p\x13@'
p4510
tp4511
Rp4512
sg3448
g204
(g208
S'\x00\\\x8f\xc2\xf5(\xbc\xbf'
p4513
tp4514
Rp4515
sa(dp4516
g3352
g204
(g208
S'\xa4p=\n\xd7\xa3\xc0?'
p4517
tp4518
Rp4519
sg3356
g204
(g208
S'{\x14\xaeG\xe1z\xa4?'
p4520
tp4521
Rp4522
sg3360
g204
(g208
S'=\n\xd7\xa3p=\xe2\xbf'
p4523
tp4524
Rp4525
sg3364
g204
(g208
S'\x00\x00\x00\x00\x00\x00\xe0\xbf'
p4526
tp4527
Rp4528
sg3368
g204
(g208
S'\xaeG\xe1z\x14\xae\t@'
p4529
tp4530
Rp4531
sg3372
g204
(g208
S'\xa4p=\n\xd7\xa3\xc0\xbf'
p4532
tp4533
Rp4534
sg3376
g204
(g208
S'333333\xc3\xbf'
p4535
tp4536
Rp4537
sg3380
g204
(g208
S'\x10\xaeG\xe1z\x14\x13\xc0'
p4538
tp4539
Rp4540
sg3384
g204
(g208
S'\x00\x9a\x99\x99\x99\x99\xc9\xbf'
p4541
tp4542
Rp4543
sg3388
g204
(g208
S'\xa4p=\n\xd7\xa3\xc0?'
p4544
tp4545
Rp4546
sg3392
g204
(g208
S')\\\x8f\xc2\xf5(\xcc\xbf'
p4547
tp4548
Rp4549
sg3396
g204
(g208
S'\n\xd7\xa3p=\n\x11\xc0'
p4550
tp4551
Rp4552
sg3400
g204
(g208
S'{\x14\xaeG\xe1z\xa4?'
p4553
tp4554
Rp4555
sg3404
g204
(g208
S'\xb8\x1e\x85\xebQ\xb8\xde?'
p4556
tp4557
Rp4558
sg3408
g204
(g208
S'H\xe1z\x14\xaeG\x0b@'
p4559
tp4560
Rp4561
sg3412
g204
(g208
S'\xa4p=\n\xd7\xa3\xc0?'
p4562
tp4563
Rp4564
sg3416
g204
(g208
S'{\x14\xaeG\xe1z\xa4?'
p4565
tp4566
Rp4567
sg3420
g204
(g208
S'{\x14\xaeG\xe1\xfa-@'
p4568
tp4569
Rp4570
sg3424
g204
(g208
S'{\x14\xaeG\xe1z\xa4\xbf'
p4571
tp4572
Rp4573
sg3428
g204
(g208
S')\\\x8f\xc2\xf5(\x19\xc0'
p4574
tp4575
Rp4576
sg3432
g204
(g208
S'\xcd\xcc\xcc\xcc\xcc\xcc-\xc0'
p4577
tp4578
Rp4579
sg3436
g204
(g208
S'\xb8\x1e\x85\xebQ\xb8\xde?'
p4580
tp4581
Rp4582
sg3440
g204
(g208
S'\\\x8f\xc2\xf5(\\\xfb\xbf'
p4583
tp4584
Rp4585
sg3444
g204
(g208
S'p=\n\xd7\xa3p\x13@'
p4586
tp4587
Rp4588
sg3448
g204
(g208
S'\x00\\\x8f\xc2\xf5(\xbc\xbf'
p4589
tp4590
Rp4591
sasg112
(lp4592
(dp4593
S'l_elbow_y'
p4594
g204
(g208
S'\xd7\xa3p=\n\xd7\xd3\xbf'
p4595
tp4596
Rp4597
sS'r_elbow_y'
p4598
g204
(g208
S')\\\x8f\xc2\xf5(\xcc\xbf'
p4599
tp4600
Rp4601
sS'r_knee_y'
p4602
g204
(g208
S'\xd7\xa3p=\n\xd7\xd3?'
p4603
tp4604
Rp4605
sS'head_y'
p4606
g204
(g208
S'@\xe1z\x14\xaeG\xe9\xbf'
p4607
tp4608
Rp4609
sS'r_ankle_y'
p4610
g204
(g208
S')\\\x8f\xc2\xf5(\xcc\xbf'
p4611
tp4612
Rp4613
sS'r_arm_z'
p4614
g204
(g208
S'\xa4p=\n\xd7\xa3\xc0\xbf'
p4615
tp4616
Rp4617
sS'head_z'
p4618
g204
(g208
S'333333\xc3?'
p4619
tp4620
Rp4621
sS'r_shoulder_x'
p4622
g204
(g208
S'\xa0p=\n\xd7\xa3.\xc0'
p4623
tp4624
Rp4625
sS'r_shoulder_y'
p4626
g204
(g208
S'\x00H\xe1z\x14\xae\xd7\xbf'
p4627
tp4628
Rp4629
sS'r_hip_z'
p4630
g204
(g208
S'\xecQ\xb8\x1e\x85\xeb\r\xc0'
p4631
tp4632
Rp4633
sS'r_hip_x'
p4634
g204
(g208
S'\xb8\x1e\x85\xebQ\xb8\xde?'
p4635
tp4636
Rp4637
sS'r_hip_y'
p4638
g204
(g208
S')\\\x8f\xc2\xf5(\xcc\xbf'
p4639
tp4640
Rp4641
sS'l_arm_z'
p4642
g204
(g208
S')\\\x8f\xc2\xf5(\xcc\xbf'
p4643
tp4644
Rp4645
sS'l_hip_x'
p4646
g204
(g208
S'\xe1z\x14\xaeG\xe1\xea\xbf'
p4647
tp4648
Rp4649
sS'l_hip_y'
p4650
g204
(g208
S'z\x14\xaeG\xe1z\xe4\xbf'
p4651
tp4652
Rp4653
sS'l_hip_z'
p4654
g204
(g208
S'333333\xf7?'
p4655
tp4656
Rp4657
sS'abs_x'
p4658
g204
(g208
S'\x00\x00\x00\x00\x00\xc00@'
p4659
tp4660
Rp4661
sS'abs_y'
p4662
g204
(g208
S'\xa4p=\n\xd7\xa3\xf8\xbf'
p4663
tp4664
Rp4665
sS'abs_z'
p4666
g204
(g208
S'\xc3\xf5(\\\x8f\xc2\x0b\xc0'
p4667
tp4668
Rp4669
sS'l_ankle_y'
p4670
g204
(g208
S'\x85\xebQ\xb8\x1e\x85+\xc0'
p4671
tp4672
Rp4673
sS'bust_y'
p4674
g204
(g208
S')\\\x8f\xc2\xf5(\x13@'
p4675
tp4676
Rp4677
sS'bust_x'
p4678
g204
(g208
S'\x9a\x99\x99\x99\x99\x19*\xc0'
p4679
tp4680
Rp4681
sS'l_knee_y'
p4682
g204
(g208
S'R\xb8\x1e\x85\xebQ.@'
p4683
tp4684
Rp4685
sS'l_shoulder_x'
p4686
g204
(g208
S'P\xb8\x1e\x85\xeb\xd1.@'
p4687
tp4688
Rp4689
sS'l_shoulder_y'
p4690
g204
(g208
S'\x80\x8f\xc2\xf5(\\\xe7\xbf'
p4691
tp4692
Rp4693
sa(dp4694
g4594
g204
(g208
S'\xd7\xa3p=\n\xd7\xd3\xbf'
p4695
tp4696
Rp4697
sg4598
g204
(g208
S')\\\x8f\xc2\xf5(\xcc\xbf'
p4698
tp4699
Rp4700
sg4602
g204
(g208
S'\xb8\x1e\x85\xebQ\xb8\xde\xbf'
p4701
tp4702
Rp4703
sg4606
g204
(g208
S'\x00\x00\x00\x00\x00\x00\xe0\xbf'
p4704
tp4705
Rp4706
sg4610
g204
(g208
S'q=\n\xd7\xa3p\xed\xbf'
p4707
tp4708
Rp4709
sg4614
g204
(g208
S'\xa4p=\n\xd7\xa3\xc0\xbf'
p4710
tp4711
Rp4712
sg4618
g204
(g208
S'333333\xc3?'
p4713
tp4714
Rp4715
sg4622
g204
(g208
S'\xb0G\xe1z\x14n1\xc0'
p4716
tp4717
Rp4718
sg4626
g204
(g208
S'\x00H\xe1z\x14\xae\xd7\xbf'
p4719
tp4720
Rp4721
sg4630
g204
(g208
S'{\x14\xaeG\xe1z\xa4\xbf'
p4722
tp4723
Rp4724
sg4634
g204
(g208
S'\x00\x00\x00\x00\x00\x00\xe8\xbf'
p4725
tp4726
Rp4727
sg4638
g204
(g208
S'\xd7\xa3p=\n\xd7\xd3\xbf'
p4728
tp4729
Rp4730
sg4642
g204
(g208
S')\\\x8f\xc2\xf5(\xcc\xbf'
p4731
tp4732
Rp4733
sg4646
g204
(g208
S'\xd7\xa3p=\n\xd7\xd3\xbf'
p4734
tp4735
Rp4736
sg4650
g204
(g208
S'z\x14\xaeG\xe1z\xe4\xbf'
p4737
tp4738
Rp4739
sg4654
g204
(g208
S'\xa4p=\n\xd7\xa3\xc0?'
p4740
tp4741
Rp4742
sg4658
g204
(g208
S'\xaeG\xe1z\x14\xae2@'
p4743
tp4744
Rp4745
sg4662
g204
(g208
S'\xe1z\x14\xaeG\xe1\xea\xbf'
p4746
tp4747
Rp4748
sg4666
g204
(g208
S'\xa4p=\n\xd7\xa3\xc0\xbf'
p4749
tp4750
Rp4751
sg4670
g204
(g208
S'\n\xd7\xa3p=\n,\xc0'
p4752
tp4753
Rp4754
sg4674
g204
(g208
S'\xd7\xa3p=\n\xd7\xd3\xbf'
p4755
tp4756
Rp4757
sg4678
g204
(g208
S'\\\x8f\xc2\xf5(\\1\xc0'
p4758
tp4759
Rp4760
sg4682
g204
(g208
S'\xf6(\\\x8f\xc2u-@'
p4761
tp4762
Rp4763
sg4686
g204
(g208
S'(\\\x8f\xc2\xf5(1@'
p4764
tp4765
Rp4766
sg4690
g204
(g208
S'\x80\x99\x99\x99\x99\x99\xe1\xbf'
p4767
tp4768
Rp4769
sa(dp4770
g4594
g204
(g208
S'\xd7\xa3p=\n\xd7\xd3\xbf'
p4771
tp4772
Rp4773
sg4598
g204
(g208
S')\\\x8f\xc2\xf5(\xcc\xbf'
p4774
tp4775
Rp4776
sg4602
g204
(g208
S'\x1f\x85\xebQ\xb8\x1e\xe5\xbf'
p4777
tp4778
Rp4779
sg4606
g204
(g208
S'\x00\x00\x00\x00\x00\x00\xe0\xbf'
p4780
tp4781
Rp4782
sg4610
g204
(g208
S'\xc3\xf5(\\\x8f\xc2\xf5\xbf'
p4783
tp4784
Rp4785
sg4614
g204
(g208
S'\xa4p=\n\xd7\xa3\xc0\xbf'
p4786
tp4787
Rp4788
sg4618
g204
(g208
S'333333\xc3?'
p4789
tp4790
Rp4791
sg4622
g204
(g208
S'\xb0G\xe1z\x14n1\xc0'
p4792
tp4793
Rp4794
sg4626
g204
(g208
S'\x00H\xe1z\x14\xae\xd7\xbf'
p4795
tp4796
Rp4797
sg4630
g204
(g208
S'{\x14\xaeG\xe1z\xa4\xbf'
p4798
tp4799
Rp4800
sg4634
g204
(g208
S'\x1f\x85\xebQ\xb8\x1e\xe5\xbf'
p4801
tp4802
Rp4803
sg4638
g204
(g208
S'\x9a\x99\x99\x99\x99\x99\xd9\xbf'
p4804
tp4805
Rp4806
sg4642
g204
(g208
S')\\\x8f\xc2\xf5(\xcc\xbf'
p4807
tp4808
Rp4809
sg4646
g204
(g208
S'\xd7\xa3p=\n\xd7\xd3\xbf'
p4810
tp4811
Rp4812
sg4650
g204
(g208
S'z\x14\xaeG\xe1z\xe4\xbf'
p4813
tp4814
Rp4815
sg4654
g204
(g208
S'\xa4p=\n\xd7\xa3\xc0?'
p4816
tp4817
Rp4818
sg4658
g204
(g208
S'\xaeG\xe1z\x14\xae2@'
p4819
tp4820
Rp4821
sg4662
g204
(g208
S'\\\x8f\xc2\xf5(\\\xfb?'
p4822
tp4823
Rp4824
sg4666
g204
(g208
S'{\x14\xaeG\xe1z\xa4\xbf'
p4825
tp4826
Rp4827
sg4670
g204
(g208
S'\x14\xaeG\xe1z\x94,\xc0'
p4828
tp4829
Rp4830
sg4674
g204
(g208
S'\xa4p=\n\xd7\xa3\x02\xc0'
p4831
tp4832
Rp4833
sg4678
g204
(g208
S'\x85\xebQ\xb8\x1eE1\xc0'
p4834
tp4835
Rp4836
sg4682
g204
(g208
S'\xecQ\xb8\x1e\x85\xeb,@'
p4837
tp4838
Rp4839
sg4686
g204
(g208
S'\x00\x00\x00\x00\x00@1@'
p4840
tp4841
Rp4842
sg4690
g204
(g208
S'\x80\x14\xaeG\xe1z\xe4\xbf'
p4843
tp4844
Rp4845
sa(dp4846
g4594
g204
(g208
S'\xd7\xa3p=\n\xd7\xd3\xbf'
p4847
tp4848
Rp4849
sg4598
g204
(g208
S')\\\x8f\xc2\xf5(\xcc\xbf'
p4850
tp4851
Rp4852
sg4602
g204
(g208
S'\n\xd7\xa3p=\n\xf3\xbf'
p4853
tp4854
Rp4855
sg4606
g204
(g208
S'\x00\x00\x00\x00\x00\x00\xe0\xbf'
p4856
tp4857
Rp4858
sg4610
g204
(g208
S'\xa4p=\n\xd7\xa3\x02\xc0'
p4859
tp4860
Rp4861
sg4614
g204
(g208
S'\xa4p=\n\xd7\xa3\xc0\xbf'
p4862
tp4863
Rp4864
sg4618
g204
(g208
S'333333\xc3?'
p4865
tp4866
Rp4867
sg4622
g204
(g208
S'\xd8\xa3p=\nW1\xc0'
p4868
tp4869
Rp4870
sg4626
g204
(g208
S'\x00H\xe1z\x14\xae\xd7\xbf'
p4871
tp4872
Rp4873
sg4630
g204
(g208
S'\xa4p=\n\xd7\xa3\xc0?'
p4874
tp4875
Rp4876
sg4634
g204
(g208
S'\x00\x00\x00\x00\x00\x00\xe8\xbf'
p4877
tp4878
Rp4879
sg4638
g204
(g208
S'\x9a\x99\x99\x99\x99\x99\xd9\xbf'
p4880
tp4881
Rp4882
sg4642
g204
(g208
S')\\\x8f\xc2\xf5(\xcc\xbf'
p4883
tp4884
Rp4885
sg4646
g204
(g208
S'\xd7\xa3p=\n\xd7\xd3\xbf'
p4886
tp4887
Rp4888
sg4650
g204
(g208
S'z\x14\xaeG\xe1z\xe4\xbf'
p4889
tp4890
Rp4891
sg4654
g204
(g208
S'\xa4p=\n\xd7\xa3\xc0?'
p4892
tp4893
Rp4894
sg4658
g204
(g208
S'\xaeG\xe1z\x14\xae2@'
p4895
tp4896
Rp4897
sg4662
g204
(g208
S'\\\x8f\xc2\xf5(\\\x10@'
p4898
tp4899
Rp4900
sg4666
g204
(g208
S'{\x14\xaeG\xe1z\xa4\xbf'
p4901
tp4902
Rp4903
sg4670
g204
(g208
S'=\n\xd7\xa3p\xbd,\xc0'
p4904
tp4905
Rp4906
sg4674
g204
(g208
S'ffffff\x11\xc0'
p4907
tp4908
Rp4909
sg4678
g204
(g208
S'\\\x8f\xc2\xf5(\\1\xc0'
p4910
tp4911
Rp4912
sg4682
g204
(g208
S'\x14\xaeG\xe1z\x94,@'
p4913
tp4914
Rp4915
sg4686
g204
(g208
S'\x00\x00\x00\x00\x00@1@'
p4916
tp4917
Rp4918
sg4690
g204
(g208
S'\x80\x14\xaeG\xe1z\xe4\xbf'
p4919
tp4920
Rp4921
sa(dp4922
g4594
g204
(g208
S'\xd7\xa3p=\n\xd7\xd3\xbf'
p4923
tp4924
Rp4925
sg4598
g204
(g208
S')\\\x8f\xc2\xf5(\xcc\xbf'
p4926
tp4927
Rp4928
sg4602
g204
(g208
S'\xcd\xcc\xcc\xcc\xcc\xcc\xfc\xbf'
p4929
tp4930
Rp4931
sg4606
g204
(g208
S'\x00\x00\x00\x00\x00\x00\xe0\xbf'
p4932
tp4933
Rp4934
sg4610
g204
(g208
S'ffffff\n\xc0'
p4935
tp4936
Rp4937
sg4614
g204
(g208
S'\xa4p=\n\xd7\xa3\xc0\xbf'
p4938
tp4939
Rp4940
sg4618
g204
(g208
S'333333\xc3?'
p4941
tp4942
Rp4943
sg4622
g204
(g208
S'\xd8\xa3p=\nW1\xc0'
p4944
tp4945
Rp4946
sg4626
g204
(g208
S'\x00H\xe1z\x14\xae\xd7\xbf'
p4947
tp4948
Rp4949
sg4630
g204
(g208
S'\xd7\xa3p=\n\xd7\xd3?'
p4950
tp4951
Rp4952
sg4634
g204
(g208
S'\x00\x00\x00\x00\x00\x00\xe8\xbf'
p4953
tp4954
Rp4955
sg4638
g204
(g208
S'\x9a\x99\x99\x99\x99\x99\xd9\xbf'
p4956
tp4957
Rp4958
sg4642
g204
(g208
S')\\\x8f\xc2\xf5(\xcc\xbf'
p4959
tp4960
Rp4961
sg4646
g204
(g208
S'\xd7\xa3p=\n\xd7\xd3\xbf'
p4962
tp4963
Rp4964
sg4650
g204
(g208
S'\\\x8f\xc2\xf5(\\\xe7\xbf'
p4965
tp4966
Rp4967
sg4654
g204
(g208
S'\xa4p=\n\xd7\xa3\xc0?'
p4968
tp4969
Rp4970
sg4658
g204
(g208
S'\xaeG\xe1z\x14\xae2@'
p4971
tp4972
Rp4973
sg4662
g204
(g208
S'{\x14\xaeG\xe1z\x19@'
p4974
tp4975
Rp4976
sg4666
g204
(g208
S'{\x14\xaeG\xe1z\xa4\xbf'
p4977
tp4978
Rp4979
sg4670
g204
(g208
S'=\n\xd7\xa3p\xbd,\xc0'
p4980
tp4981
Rp4982
sg4674
g204
(g208
S')\\\x8f\xc2\xf5(\x19\xc0'
p4983
tp4984
Rp4985
sg4678
g204
(g208
S'\\\x8f\xc2\xf5(\\1\xc0'
p4986
tp4987
Rp4988
sg4682
g204
(g208
S'\n\xd7\xa3p=\n,@'
p4989
tp4990
Rp4991
sg4686
g204
(g208
S'\x00\x00\x00\x00\x00@1@'
p4992
tp4993
Rp4994
sg4690
g204
(g208
S'\x80\x14\xaeG\xe1z\xe4\xbf'
p4995
tp4996
Rp4997
sa(dp4998
g4594
g204
(g208
S'\xd7\xa3p=\n\xd7\xd3\xbf'
p4999
tp5000
Rp5001
sg4598
g204
(g208
S')\\\x8f\xc2\xf5(\xcc\xbf'
p5002
tp5003
Rp5004
sg4602
g204
(g208
S'=\n\xd7\xa3p=\xfe\xbf'
p5005
tp5006
Rp5007
sg4606
g204
(g208
S'\x00\x00\x00\x00\x00\x00\xe0\xbf'
p5008
tp5009
Rp5010
sg4610
g204
(g208
S'\x8f\xc2\xf5(\\\x8f\x0e\xc0'
p5011
tp5012
Rp5013
sg4614
g204
(g208
S'\xa4p=\n\xd7\xa3\xc0\xbf'
p5014
tp5015
Rp5016
sg4618
g204
(g208
S'333333\xc3?'
p5017
tp5018
Rp5019
sg4622
g204
(g208
S'\xecQ\xb8\x1e\x85\xeb2\xc0'
p5020
tp5021
Rp5022
sg4626
g204
(g208
S'\x00=\n\xd7\xa3p\xdd\xbf'
p5023
tp5024
Rp5025
sg4630
g204
(g208
S'\x9a\x99\x99\x99\x99\x99\xd9?'
p5026
tp5027
Rp5028
sg4634
g204
(g208
S'\x00\x00\x00\x00\x00\x00\xe8\xbf'
p5029
tp5030
Rp5031
sg4638
g204
(g208
S')\\\x8f\xc2\xf5(\xcc\xbf'
p5032
tp5033
Rp5034
sg4642
g204
(g208
S')\\\x8f\xc2\xf5(\xcc\xbf'
p5035
tp5036
Rp5037
sg4646
g204
(g208
S'\xb8\x1e\x85\xebQ\xb8\xde\xbf'
p5038
tp5039
Rp5040
sg4650
g204
(g208
S'p=\n\xd7\xa3p\xdd\xbf'
p5041
tp5042
Rp5043
sg4654
g204
(g208
S'{\x14\xaeG\xe1z\xa4?'
p5044
tp5045
Rp5046
sg4658
g204
(g208
S'\n\xd7\xa3p=\xca4@'
p5047
tp5048
Rp5049
sg4662
g204
(g208
S'\x00\x00\x00\x00\x00\x00\xe8\xbf'
p5050
tp5051
Rp5052
sg4666
g204
(g208
S'\xb8\x1e\x85\xebQ\xb8\xde?'
p5053
tp5054
Rp5055
sg4670
g204
(g208
S'\x14\xaeG\xe1z\x94,\xc0'
p5056
tp5057
Rp5058
sg4674
g204
(g208
S'\x9a\x99\x99\x99\x99\x99\xd9\xbf'
p5059
tp5060
Rp5061
sg4678
g204
(g208
S'\x14\xaeG\xe1zT2\xc0'
p5062
tp5063
Rp5064
sg4682
g204
(g208
S'ffffff,@'
p5065
tp5066
Rp5067
sg4686
g204
(g208
S'\xd8\xa3p=\n\xd72@'
p5068
tp5069
Rp5070
sg4690
g204
(g208
S'\x80\x14\xaeG\xe1z\xe4\xbf'
p5071
tp5072
Rp5073
sa(dp5074
g4594
g204
(g208
S'\xd7\xa3p=\n\xd7\xd3\xbf'
p5075
tp5076
Rp5077
sg4598
g204
(g208
S')\\\x8f\xc2\xf5(\xcc\xbf'
p5078
tp5079
Rp5080
sg4602
g204
(g208
S'\xc3\xf5(\\\x8f\xc2\xf5\xbf'
p5081
tp5082
Rp5083
sg4606
g204
(g208
S'\x00{\x14\xaeG\xe1\xca\xbf'
p5084
tp5085
Rp5086
sg4610
g204
(g208
S')\\\x8f\xc2\xf5(\x06\xc0'
p5087
tp5088
Rp5089
sg4614
g204
(g208
S'\xa4p=\n\xd7\xa3\xc0\xbf'
p5090
tp5091
Rp5092
sg4618
g204
(g208
S'333333\xc3?'
p5093
tp5094
Rp5095
sg4622
g204
(g208
S'\xc4\xf5(\\\x8f\x023\xc0'
p5096
tp5097
Rp5098
sg4626
g204
(g208
S'\x00H\xe1z\x14\xae\xd7\xbf'
p5099
tp5100
Rp5101
sg4630
g204
(g208
S'\xa4p=\n\xd7\xa3\xc0?'
p5102
tp5103
Rp5104
sg4634
g204
(g208
S'\xe1z\x14\xaeG\xe1\xea\xbf'
p5105
tp5106
Rp5107
sg4638
g204
(g208
S'\x9a\x99\x99\x99\x99\x99\xd9\xbf'
p5108
tp5109
Rp5110
sg4642
g204
(g208
S')\\\x8f\xc2\xf5(\xcc\xbf'
p5111
tp5112
Rp5113
sg4646
g204
(g208
S')\\\x8f\xc2\xf5(\xcc\xbf'
p5114
tp5115
Rp5116
sg4650
g204
(g208
S'p=\n\xd7\xa3p\xdd\xbf'
p5117
tp5118
Rp5119
sg4654
g204
(g208
S'{\x14\xaeG\xe1z\xa4\xbf'
p5120
tp5121
Rp5122
sg4658
g204
(g208
S'33333\xb34@'
p5123
tp5124
Rp5125
sg4662
g204
(g208
S'\xa4p=\n\xd7\xa3\xc0\xbf'
p5126
tp5127
Rp5128
sg4666
g204
(g208
S'\xb8\x1e\x85\xebQ\xb8\xde?'
p5129
tp5130
Rp5131
sg4670
g204
(g208
S'\x14\xaeG\xe1z\x94,\xc0'
p5132
tp5133
Rp5134
sg4674
g204
(g208
S')\\\x8f\xc2\xf5(\xcc?'
p5135
tp5136
Rp5137
sg4678
g204
(g208
S'\x8f\xc2\xf5(\\\x8f3\xc0'
p5138
tp5139
Rp5140
sg4682
g204
(g208
S'\x9a\x99\x99\x99\x99\x19-@'
p5141
tp5142
Rp5143
sg4686
g204
(g208
S'\x98\x99\x99\x99\x99\x193@'
p5144
tp5145
Rp5146
sg4690
g204
(g208
S'\x80\x14\xaeG\xe1z\xe4\xbf'
p5147
tp5148
Rp5149
sa(dp5150
g4594
g204
(g208
S'\xd7\xa3p=\n\xd7\xd3\xbf'
p5151
tp5152
Rp5153
sg4598
g204
(g208
S')\\\x8f\xc2\xf5(\xcc\xbf'
p5154
tp5155
Rp5156
sg4602
g204
(g208
S'\x14\xaeG\xe1z\x14\xfa\xbf'
p5157
tp5158
Rp5159
sg4606
g204
(g208
S'\x00\x00\x00\x00\x00\x00\xe0\xbf'
p5160
tp5161
Rp5162
sg4610
g204
(g208
S'\x14\xaeG\xe1z\x14\x04\xc0'
p5163
tp5164
Rp5165
sg4614
g204
(g208
S'\xa4p=\n\xd7\xa3\xc0\xbf'
p5166
tp5167
Rp5168
sg4618
g204
(g208
S'333333\xc3?'
p5169
tp5170
Rp5171
sg4622
g204
(g208
S'\xc4\xf5(\\\x8f\x023\xc0'
p5172
tp5173
Rp5174
sg4626
g204
(g208
S'\x00=\n\xd7\xa3p\xdd\xbf'
p5175
tp5176
Rp5177
sg4630
g204
(g208
S'=\n\xd7\xa3p=\xe2?'
p5178
tp5179
Rp5180
sg4634
g204
(g208
S'\xb8\x1e\x85\xebQ\xb8\xde\xbf'
p5181
tp5182
Rp5183
sg4638
g204
(g208
S'\x9a\x99\x99\x99\x99\x99\xd9\xbf'
p5184
tp5185
Rp5186
sg4642
g204
(g208
S')\\\x8f\xc2\xf5(\xcc\xbf'
p5187
tp5188
Rp5189
sg4646
g204
(g208
S'q=\n\xd7\xa3p\xed\xbf'
p5190
tp5191
Rp5192
sg4650
g204
(g208
S'p=\n\xd7\xa3p\xdd\xbf'
p5193
tp5194
Rp5195
sg4654
g204
(g208
S'\xa4p=\n\xd7\xa3\xc0\xbf'
p5196
tp5197
Rp5198
sg4658
g204
(g208
S'\n\xd7\xa3p=\xca4@'
p5199
tp5200
Rp5201
sg4662
g204
(g208
S'\xcd\xcc\xcc\xcc\xcc\xcc\xfc?'
p5202
tp5203
Rp5204
sg4666
g204
(g208
S'\x9a\x99\x99\x99\x99\x99\xd9?'
p5205
tp5206
Rp5207
sg4670
g204
(g208
S')\\\x8f\xc2\xf5(+\xc0'
p5208
tp5209
Rp5210
sg4674
g204
(g208
S'=\n\xd7\xa3p=\xfe\xbf'
p5211
tp5212
Rp5213
sg4678
g204
(g208
S'\xf6(\\\x8f\xc253\xc0'
p5214
tp5215
Rp5216
sg4682
g204
(g208
S'\x9a\x99\x99\x99\x99\x19-@'
p5217
tp5218
Rp5219
sg4686
g204
(g208
S'p=\n\xd7\xa303@'
p5220
tp5221
Rp5222
sg4690
g204
(g208
S'\x80\x14\xaeG\xe1z\xe4\xbf'
p5223
tp5224
Rp5225
sa(dp5226
g4594
g204
(g208
S'\xd7\xa3p=\n\xd7\xd3\xbf'
p5227
tp5228
Rp5229
sg4598
g204
(g208
S'\xd7\xa3p=\n\xd7\xd3\xbf'
p5230
tp5231
Rp5232
sg4602
g204
(g208
S'\xaeG\xe1z\x14\xae\xff\xbf'
p5233
tp5234
Rp5235
sg4606
g204
(g208
S'\x00{\x14\xaeG\xe1\xca\xbf'
p5236
tp5237
Rp5238
sg4610
g204
(g208
S'\x00\x00\x00\x00\x00\x00\x10\xc0'
p5239
tp5240
Rp5241
sg4614
g204
(g208
S'\xa4p=\n\xd7\xa3\xc0\xbf'
p5242
tp5243
Rp5244
sg4618
g204
(g208
S'333333\xc3?'
p5245
tp5246
Rp5247
sg4622
g204
(g208
S'\xc4\xf5(\\\x8f\x023\xc0'
p5248
tp5249
Rp5250
sg4626
g204
(g208
S'\x00\xc3\xf5(\\\x8f\xd2\xbf'
p5251
tp5252
Rp5253
sg4630
g204
(g208
S'\x9a\x99\x99\x99\x99\x99\xd9?'
p5254
tp5255
Rp5256
sg4634
g204
(g208
S'q=\n\xd7\xa3p\xed\xbf'
p5257
tp5258
Rp5259
sg4638
g204
(g208
S')\\\x8f\xc2\xf5(\xcc\xbf'
p5260
tp5261
Rp5262
sg4642
g204
(g208
S')\\\x8f\xc2\xf5(\xcc\xbf'
p5263
tp5264
Rp5265
sg4646
g204
(g208
S'\xb8\x1e\x85\xebQ\xb8\xde\xbf'
p5266
tp5267
Rp5268
sg4650
g204
(g208
S'\x9a\x99\x99\x99\x99\x99\xe1\xbf'
p5269
tp5270
Rp5271
sg4654
g204
(g208
S'{\x14\xaeG\xe1z\xa4\xbf'
p5272
tp5273
Rp5274
sg4658
g204
(g208
S'\n\xd7\xa3p=\xca4@'
p5275
tp5276
Rp5277
sg4662
g204
(g208
S'\n\xd7\xa3p=\n\x11@'
p5278
tp5279
Rp5280
sg4666
g204
(g208
S'\xd7\xa3p=\n\xd7\xd3?'
p5281
tp5282
Rp5283
sg4670
g204
(g208
S'\\\x8f\xc2\xf5(\xdc+\xc0'
p5284
tp5285
Rp5286
sg4674
g204
(g208
S'\xb8\x1e\x85\xebQ\xb8\x10\xc0'
p5287
tp5288
Rp5289
sg4678
g204
(g208
S'\\\x8f\xc2\xf5(\xdc2\xc0'
p5290
tp5291
Rp5292
sg4682
g204
(g208
S'\xb8\x1e\x85\xebQ8,@'
p5293
tp5294
Rp5295
sg4686
g204
(g208
S'p=\n\xd7\xa303@'
p5296
tp5297
Rp5298
sg4690
g204
(g208
S'\x80\x99\x99\x99\x99\x99\xe1\xbf'
p5299
tp5300
Rp5301
sa(dp5302
g4594
g204
(g208
S'\xd7\xa3p=\n\xd7\xd3\xbf'
p5303
tp5304
Rp5305
sg4598
g204
(g208
S')\\\x8f\xc2\xf5(\xcc\xbf'
p5306
tp5307
Rp5308
sg4602
g204
(g208
S'\xcd\xcc\xcc\xcc\xcc\xcc\xfc\xbf'
p5309
tp5310
Rp5311
sg4606
g204
(g208
S'\x00{\x14\xaeG\xe1\xca\xbf'
p5312
tp5313
Rp5314
sg4610
g204
(g208
S'\x9a\x99\x99\x99\x99\x99\x07\xc0'
p5315
tp5316
Rp5317
sg4614
g204
(g208
S'\xa4p=\n\xd7\xa3\xc0\xbf'
p5318
tp5319
Rp5320
sg4618
g204
(g208
S'333333\xc3\xbf'
p5321
tp5322
Rp5323
sg4622
g204
(g208
S'43333\xf34\xc0'
p5324
tp5325
Rp5326
sg4626
g204
(g208
S'\x00H\xe1z\x14\xae\xd7\xbf'
p5327
tp5328
Rp5329
sg4630
g204
(g208
S'\xb8\x1e\x85\xebQ\xb8\xde?'
p5330
tp5331
Rp5332
sg4634
g204
(g208
S'\x1f\x85\xebQ\xb8\x1e\xe5\xbf'
p5333
tp5334
Rp5335
sg4638
g204
(g208
S'{\x14\xaeG\xe1z\xa4?'
p5336
tp5337
Rp5338
sg4642
g204
(g208
S')\\\x8f\xc2\xf5(\xcc\xbf'
p5339
tp5340
Rp5341
sg4646
g204
(g208
S'\x00\x00\x00\x00\x00\x00\xe8\xbf'
p5342
tp5343
Rp5344
sg4650
g204
(g208
S'p=\n\xd7\xa3p\xdd\xbf'
p5345
tp5346
Rp5347
sg4654
g204
(g208
S'{\x14\xaeG\xe1z\xa4?'
p5348
tp5349
Rp5350
sg4658
g204
(g208
S'\x8f\xc2\xf5(\\\xcf6@'
p5351
tp5352
Rp5353
sg4662
g204
(g208
S'\x14\xaeG\xe1z\x14\xfa\xbf'
p5354
tp5355
Rp5356
sg4666
g204
(g208
S'\xb8\x1e\x85\xebQ\xb8\xde?'
p5357
tp5358
Rp5359
sg4670
g204
(g208
S'\xd7\xa3p=\nW+\xc0'
p5360
tp5361
Rp5362
sg4674
g204
(g208
S'\x00\x00\x00\x00\x00\x00\xe8?'
p5363
tp5364
Rp5365
sg4678
g204
(g208
S'\n\xd7\xa3p=\xca4\xc0'
p5366
tp5367
Rp5368
sg4682
g204
(g208
S'\x14\xaeG\xe1z\x94,@'
p5369
tp5370
Rp5371
sg4686
g204
(g208
S'\x84\xebQ\xb8\x1e\xc54@'
p5372
tp5373
Rp5374
sg4690
g204
(g208
S'\x80\x99\x99\x99\x99\x99\xe1\xbf'
p5375
tp5376
Rp5377
sa(dp5378
g4594
g204
(g208
S'\xd7\xa3p=\n\xd7\xd3\xbf'
p5379
tp5380
Rp5381
sg4598
g204
(g208
S')\\\x8f\xc2\xf5(\xcc\xbf'
p5382
tp5383
Rp5384
sg4602
g204
(g208
S'\x1f\x85\xebQ\xb8\x1e\xe5?'
p5385
tp5386
Rp5387
sg4606
g204
(g208
S'\x00\x00\x00\x00\x00\x00\xe0\xbf'
p5388
tp5389
Rp5390
sg4610
g204
(g208
S')\\\x8f\xc2\xf5(\xf0?'
p5391
tp5392
Rp5393
sg4614
g204
(g208
S'\xa4p=\n\xd7\xa3\xc0\xbf'
p5394
tp5395
Rp5396
sg4618
g204
(g208
S'333333\xc3?'
p5397
tp5398
Rp5399
sg4622
g204
(g208
S'43333\xf34\xc0'
p5400
tp5401
Rp5402
sg4626
g204
(g208
S'\x00\xc3\xf5(\\\x8f\xd2\xbf'
p5403
tp5404
Rp5405
sg4630
g204
(g208
S'\xa4p=\n\xd7\xa3\xc0\xbf'
p5406
tp5407
Rp5408
sg4634
g204
(g208
S'\xa4p=\n\xd7\xa3\xf8\xbf'
p5409
tp5410
Rp5411
sg4638
g204
(g208
S'\xd7\xa3p=\n\xd7\xd3\xbf'
p5412
tp5413
Rp5414
sg4642
g204
(g208
S')\\\x8f\xc2\xf5(\xcc\xbf'
p5415
tp5416
Rp5417
sg4646
g204
(g208
S'\xa4p=\n\xd7\xa3\xc0\xbf'
p5418
tp5419
Rp5420
sg4650
g204
(g208
S'\x98\x99\x99\x99\x99\x99\xc9\xbf'
p5421
tp5422
Rp5423
sg4654
g204
(g208
S'\xd7\xa3p=\n\xd7\xd3\xbf'
p5424
tp5425
Rp5426
sg4658
g204
(g208
S'fffff\xe66@'
p5427
tp5428
Rp5429
sg4662
g204
(g208
S'\xc3\xf5(\\\x8f\xc2\xf5\xbf'
p5430
tp5431
Rp5432
sg4666
g204
(g208
S'\xb8\x1e\x85\xebQ\xb8\xde?'
p5433
tp5434
Rp5435
sg4670
g204
(g208
S'\x9a\x99\x99\x99\x99\x19*\xc0'
p5436
tp5437
Rp5438
sg4674
g204
(g208
S'\xd7\xa3p=\n\xd7\xd3\xbf'
p5439
tp5440
Rp5441
sg4678
g204
(g208
S'\xecQ\xb8\x1e\x85\xab5\xc0'
p5442
tp5443
Rp5444
sg4682
g204
(g208
S')\\\x8f\xc2\xf5(.@'
p5445
tp5446
Rp5447
sg4686
g204
(g208
S'43333\xf34@'
p5448
tp5449
Rp5450
sg4690
g204
(g208
S'\x80\x99\x99\x99\x99\x99\xe1\xbf'
p5451
tp5452
Rp5453
sa(dp5454
g4594
g204
(g208
S'\xd7\xa3p=\n\xd7\xd3\xbf'
p5455
tp5456
Rp5457
sg4598
g204
(g208
S')\\\x8f\xc2\xf5(\xcc\xbf'
p5458
tp5459
Rp5460
sg4602
g204
(g208
S'{\x14\xaeG\xe1z\xa4?'
p5461
tp5462
Rp5463
sg4606
g204
(g208
S'\x00\x00\x00\x00\x00\x00\xe0\xbf'
p5464
tp5465
Rp5466
sg4610
g204
(g208
S'\xe1z\x14\xaeG\xe1\xea?'
p5467
tp5468
Rp5469
sg4614
g204
(g208
S'\xa4p=\n\xd7\xa3\xc0\xbf'
p5470
tp5471
Rp5472
sg4618
g204
(g208
S'333333\xc3\xbf'
p5473
tp5474
Rp5475
sg4622
g204
(g208
S'43333\xf34\xc0'
p5476
tp5477
Rp5478
sg4626
g204
(g208
S'\x00\xc3\xf5(\\\x8f\xd2\xbf'
p5479
tp5480
Rp5481
sg4630
g204
(g208
S')\\\x8f\xc2\xf5(\xcc\xbf'
p5482
tp5483
Rp5484
sg4634
g204
(g208
S'333333\xf7\xbf'
p5485
tp5486
Rp5487
sg4638
g204
(g208
S'\x9a\x99\x99\x99\x99\x99\xd9\xbf'
p5488
tp5489
Rp5490
sg4642
g204
(g208
S')\\\x8f\xc2\xf5(\xcc\xbf'
p5491
tp5492
Rp5493
sg4646
g204
(g208
S'\xa4p=\n\xd7\xa3\xc0\xbf'
p5494
tp5495
Rp5496
sg4650
g204
(g208
S'\x90\xc2\xf5(\\\x8f\xd2\xbf'
p5497
tp5498
Rp5499
sg4654
g204
(g208
S'\xa4p=\n\xd7\xa3\xc0\xbf'
p5500
tp5501
Rp5502
sg4658
g204
(g208
S'\x8f\xc2\xf5(\\\xcf6@'
p5503
tp5504
Rp5505
sg4662
g204
(g208
S'\x9a\x99\x99\x99\x99\x99\xf1?'
p5506
tp5507
Rp5508
sg4666
g204
(g208
S'\xb8\x1e\x85\xebQ\xb8\xde?'
p5509
tp5510
Rp5511
sg4670
g204
(g208
S'H\xe1z\x14\xaeG*\xc0'
p5512
tp5513
Rp5514
sg4674
g204
(g208
S'\\\x8f\xc2\xf5(\\\x03\xc0'
p5515
tp5516
Rp5517
sg4678
g204
(g208
S'\xecQ\xb8\x1e\x85\xab5\xc0'
p5518
tp5519
Rp5520
sg4682
g204
(g208
S'{\x14\xaeG\xe1\xfa-@'
p5521
tp5522
Rp5523
sg4686
g204
(g208
S'43333\xf34@'
p5524
tp5525
Rp5526
sg4690
g204
(g208
S'\x80\x99\x99\x99\x99\x99\xe1\xbf'
p5527
tp5528
Rp5529
sa(dp5530
g4594
g204
(g208
S'\xd7\xa3p=\n\xd7\xd3\xbf'
p5531
tp5532
Rp5533
sg4598
g204
(g208
S')\\\x8f\xc2\xf5(\xcc\xbf'
p5534
tp5535
Rp5536
sg4602
g204
(g208
S'\x00\x00\x00\x00\x00\x00\xe8\xbf'
p5537
tp5538
Rp5539
sg4606
g204
(g208
S'\x00\x00\x00\x00\x00\x00\xe0\xbf'
p5540
tp5541
Rp5542
sg4610
g204
(g208
S'\\\x8f\xc2\xf5(\\\xfb\xbf'
p5543
tp5544
Rp5545
sg4614
g204
(g208
S'\xa4p=\n\xd7\xa3\xc0\xbf'
p5546
tp5547
Rp5548
sg4618
g204
(g208
S'333333\xc3\xbf'
p5549
tp5550
Rp5551
sg4622
g204
(g208
S'H\xe1z\x14\xae\x075\xc0'
p5552
tp5553
Rp5554
sg4626
g204
(g208
S'\x00H\xe1z\x14\xae\xd7\xbf'
p5555
tp5556
Rp5557
sg4630
g204
(g208
S')\\\x8f\xc2\xf5(\xcc?'
p5558
tp5559
Rp5560
sg4634
g204
(g208
S'\x1f\x85\xebQ\xb8\x1e\xe5\xbf'
p5561
tp5562
Rp5563
sg4638
g204
(g208
S'\xd7\xa3p=\n\xd7\xd3?'
p5564
tp5565
Rp5566
sg4642
g204
(g208
S')\\\x8f\xc2\xf5(\xcc\xbf'
p5567
tp5568
Rp5569
sg4646
g204
(g208
S'\x1f\x85\xebQ\xb8\x1e\xe5\xbf'
p5570
tp5571
Rp5572
sg4650
g204
(g208
S'p=\n\xd7\xa3p\xdd\xbf'
p5573
tp5574
Rp5575
sg4654
g204
(g208
S'\xa4p=\n\xd7\xa3\xc0?'
p5576
tp5577
Rp5578
sg4658
g204
(g208
S'\x8f\xc2\xf5(\\\xcf6@'
p5579
tp5580
Rp5581
sg4662
g204
(g208
S'\xecQ\xb8\x1e\x85\xeb\r@'
p5582
tp5583
Rp5584
sg4666
g204
(g208
S'{\x14\xaeG\xe1z\xa4?'
p5585
tp5586
Rp5587
sg4670
g204
(g208
S'R\xb8\x1e\x85\xeb\xd1*\xc0'
p5588
tp5589
Rp5590
sg4674
g204
(g208
S'\n\xd7\xa3p=\n\x11\xc0'
p5591
tp5592
Rp5593
sg4678
g204
(g208
S'\xa4p=\n\xd7#5\xc0'
p5594
tp5595
Rp5596
sg4682
g204
(g208
S'\x9a\x99\x99\x99\x99\x19-@'
p5597
tp5598
Rp5599
sg4686
g204
(g208
S'H\xe1z\x14\xae\x075@'
p5600
tp5601
Rp5602
sg4690
g204
(g208
S'\x80\x99\x99\x99\x99\x99\xe1\xbf'
p5603
tp5604
Rp5605
sa(dp5606
g4594
g204
(g208
S'\xd7\xa3p=\n\xd7\xd3\xbf'
p5607
tp5608
Rp5609
sg4598
g204
(g208
S'\xd7\xa3p=\n\xd7\xd3\xbf'
p5610
tp5611
Rp5612
sg4602
g204
(g208
S'\xaeG\xe1z\x14\xae\xff\xbf'
p5613
tp5614
Rp5615
sg4606
g204
(g208
S'\x00\x00\x00\x00\x00\x00\xe0\xbf'
p5616
tp5617
Rp5618
sg4610
g204
(g208
S'\xecQ\xb8\x1e\x85\xeb\r\xc0'
p5619
tp5620
Rp5621
sg4614
g204
(g208
S'{\x14\xaeG\xe1z\xa4\xbf'
p5622
tp5623
Rp5624
sg4618
g204
(g208
S'333333\xc3?'
p5625
tp5626
Rp5627
sg4622
g204
(g208
S'H\xe1z\x14\xae\x075\xc0'
p5628
tp5629
Rp5630
sg4626
g204
(g208
S'\x00\xc3\xf5(\\\x8f\xd2\xbf'
p5631
tp5632
Rp5633
sg4630
g204
(g208
S'\x9a\x99\x99\x99\x99\x99\xd9?'
p5634
tp5635
Rp5636
sg4634
g204
(g208
S'\x1f\x85\xebQ\xb8\x1e\xe5\xbf'
p5637
tp5638
Rp5639
sg4638
g204
(g208
S')\\\x8f\xc2\xf5(\xcc?'
p5640
tp5641
Rp5642
sg4642
g204
(g208
S'\xa4p=\n\xd7\xa3\xc0\xbf'
p5643
tp5644
Rp5645
sg4646
g204
(g208
S'\x1f\x85\xebQ\xb8\x1e\xe5\xbf'
p5646
tp5647
Rp5648
sg4650
g204
(g208
S'\x9a\x99\x99\x99\x99\x99\xe1\xbf'
p5649
tp5650
Rp5651
sg4654
g204
(g208
S'\xa4p=\n\xd7\xa3\xc0?'
p5652
tp5653
Rp5654
sg4658
g204
(g208
S'\x8f\xc2\xf5(\\\xcf6@'
p5655
tp5656
Rp5657
sg4662
g204
(g208
S'{\x14\xaeG\xe1z\x19@'
p5658
tp5659
Rp5660
sg4666
g204
(g208
S'{\x14\xaeG\xe1z\xa4?'
p5661
tp5662
Rp5663
sg4670
g204
(g208
S'33333\xb3+\xc0'
p5664
tp5665
Rp5666
sg4674
g204
(g208
S')\\\x8f\xc2\xf5(\x19\xc0'
p5667
tp5668
Rp5669
sg4678
g204
(g208
S'R\xb8\x1e\x85\xebQ5\xc0'
p5670
tp5671
Rp5672
sg4682
g204
(g208
S'\xb8\x1e\x85\xebQ8,@'
p5673
tp5674
Rp5675
sg4686
g204
(g208
S'43333\xf34@'
p5676
tp5677
Rp5678
sg4690
g204
(g208
S'\x80\x99\x99\x99\x99\x99\xe1\xbf'
p5679
tp5680
Rp5681
sa(dp5682
g4594
g204
(g208
S'\xd7\xa3p=\n\xd7\xd3\xbf'
p5683
tp5684
Rp5685
sg4598
g204
(g208
S')\\\x8f\xc2\xf5(\xcc\xbf'
p5686
tp5687
Rp5688
sg4602
g204
(g208
S'\xc3\xf5(\\\x8f\xc2\xf5\xbf'
p5689
tp5690
Rp5691
sg4606
g204
(g208
S'\x00\x00\x00\x00\x00\x00\xe0\xbf'
p5692
tp5693
Rp5694
sg4610
g204
(g208
S'\xb8\x1e\x85\xebQ\xb8\x04\xc0'
p5695
tp5696
Rp5697
sg4614
g204
(g208
S'{\x14\xaeG\xe1z\xa4\xbf'
p5698
tp5699
Rp5700
sg4618
g204
(g208
S'333333\xc3\xbf'
p5701
tp5702
Rp5703
sg4622
g204
(g208
S'H\xe1z\x14\xae\x075\xc0'
p5704
tp5705
Rp5706
sg4626
g204
(g208
S'\x00H\xe1z\x14\xae\xd7\xbf'
p5707
tp5708
Rp5709
sg4630
g204
(g208
S'\xd7\xa3p=\n\xd7\xd3?'
p5710
tp5711
Rp5712
sg4634
g204
(g208
S')\\\x8f\xc2\xf5(\xcc\xbf'
p5713
tp5714
Rp5715
sg4638
g204
(g208
S'\xa4p=\n\xd7\xa3\xc0?'
p5716
tp5717
Rp5718
sg4642
g204
(g208
S')\\\x8f\xc2\xf5(\xcc\xbf'
p5719
tp5720
Rp5721
sg4646
g204
(g208
S'\xe1z\x14\xaeG\xe1\xea\xbf'
p5722
tp5723
Rp5724
sg4650
g204
(g208
S'z\x14\xaeG\xe1z\xe4\xbf'
p5725
tp5726
Rp5727
sg4654
g204
(g208
S'{\x14\xaeG\xe1z\xa4\xbf'
p5728
tp5729
Rp5730
sg4658
g204
(g208
S'{\x14\xaeG\xe1\xba6@'
p5731
tp5732
Rp5733
sg4662
g204
(g208
S'\x1f\x85\xebQ\xb8\x1e\x1f@'
p5734
tp5735
Rp5736
sg4666
g204
(g208
S'\x9a\x99\x99\x99\x99\x99\xd9?'
p5737
tp5738
Rp5739
sg4670
g204
(g208
S'R\xb8\x1e\x85\xeb\xd1*\xc0'
p5740
tp5741
Rp5742
sg4674
g204
(g208
S'\xcd\xcc\xcc\xcc\xcc\xcc \xc0'
p5743
tp5744
Rp5745
sg4678
g204
(g208
S'\xecQ\xb8\x1e\x85\xab5\xc0'
p5746
tp5747
Rp5748
sg4682
g204
(g208
S'\xf6(\\\x8f\xc2u-@'
p5749
tp5750
Rp5751
sg4686
g204
(g208
S'H\xe1z\x14\xae\x075@'
p5752
tp5753
Rp5754
sg4690
g204
(g208
S'\x80\x99\x99\x99\x99\x99\xe1\xbf'
p5755
tp5756
Rp5757
sa(dp5758
g4594
g204
(g208
S'\xd7\xa3p=\n\xd7\xd3\xbf'
p5759
tp5760
Rp5761
sg4598
g204
(g208
S')\\\x8f\xc2\xf5(\xcc\xbf'
p5762
tp5763
Rp5764
sg4602
g204
(g208
S'\xe1z\x14\xaeG\xe1\xea?'
p5765
tp5766
Rp5767
sg4606
g204
(g208
S'\x00{\x14\xaeG\xe1\xca\xbf'
p5768
tp5769
Rp5770
sg4610
g204
(g208
S'\\\x8f\xc2\xf5(\\\xfb?'
p5771
tp5772
Rp5773
sg4614
g204
(g208
S'\xa4p=\n\xd7\xa3\xc0\xbf'
p5774
tp5775
Rp5776
sg4618
g204
(g208
S'333333\xc3?'
p5777
tp5778
Rp5779
sg4622
g204
(g208
S' \x85\xebQ\xb8\x9e6\xc0'
p5780
tp5781
Rp5782
sg4626
g204
(g208
S'\x00\x9a\x99\x99\x99\x99\xc9\xbf'
p5783
tp5784
Rp5785
sg4630
g204
(g208
S'\xa4p=\n\xd7\xa3\xc0\xbf'
p5786
tp5787
Rp5788
sg4634
g204
(g208
S'\x9a\x99\x99\x99\x99\x99\xd9\xbf'
p5789
tp5790
Rp5791
sg4638
g204
(g208
S')\\\x8f\xc2\xf5(\xcc?'
p5792
tp5793
Rp5794
sg4642
g204
(g208
S')\\\x8f\xc2\xf5(\xcc\xbf'
p5795
tp5796
Rp5797
sg4646
g204
(g208
S'q=\n\xd7\xa3p\xed\xbf'
p5798
tp5799
Rp5800
sg4650
g204
(g208
S'\xb0G\xe1z\x14\xae\xd7\xbf'
p5801
tp5802
Rp5803
sg4654
g204
(g208
S')\\\x8f\xc2\xf5(\xcc\xbf'
p5804
tp5805
Rp5806
sg4658
g204
(g208
S'\xd7\xa3p=\n\xd78@'
p5807
tp5808
Rp5809
sg4662
g204
(g208
S'\xa4p=\n\xd7\xa3\x02\xc0'
p5810
tp5811
Rp5812
sg4666
g204
(g208
S')\\\x8f\xc2\xf5(\xcc?'
p5813
tp5814
Rp5815
sg4670
g204
(g208
S'\\\x8f\xc2\xf5(\xdc+\xc0'
p5816
tp5817
Rp5818
sg4674
g204
(g208
S'\x00\x00\x00\x00\x00\x00\xe8\xbf'
p5819
tp5820
Rp5821
sg4678
g204
(g208
S'=\n\xd7\xa3p\xfd6\xc0'
p5822
tp5823
Rp5824
sg4682
g204
(g208
S'H\xe1z\x14\xaeG-@'
p5825
tp5826
Rp5827
sg4686
g204
(g208
S'\xe0z\x14\xaeG\xe16@'
p5828
tp5829
Rp5830
sg4690
g204
(g208
S'\x80\x99\x99\x99\x99\x99\xe1\xbf'
p5831
tp5832
Rp5833
sa(dp5834
g4594
g204
(g208
S')\\\x8f\xc2\xf5(\xcc\xbf'
p5835
tp5836
Rp5837
sg4598
g204
(g208
S'\xa4p=\n\xd7\xa3\xc0\xbf'
p5838
tp5839
Rp5840
sg4602
g204
(g208
S'\x1f\x85\xebQ\xb8\x1e\xe5?'
p5841
tp5842
Rp5843
sg4606
g204
(g208
S'\x00\x00\x00\x00\x00\x00\xe0\xbf'
p5844
tp5845
Rp5846
sg4610
g204
(g208
S'\x9a\x99\x99\x99\x99\x99\xd9?'
p5847
tp5848
Rp5849
sg4614
g204
(g208
S'\xa4p=\n\xd7\xa3\xc0\xbf'
p5850
tp5851
Rp5852
sg4618
g204
(g208
S'333333\xc3?'
p5853
tp5854
Rp5855
sg4622
g204
(g208
S'\xe0z\x14\xaeG\xe16\xc0'
p5856
tp5857
Rp5858
sg4626
g204
(g208
S'\x00\x9a\x99\x99\x99\x99\xc9\xbf'
p5859
tp5860
Rp5861
sg4630
g204
(g208
S'\xa4p=\n\xd7\xa3\xc0?'
p5862
tp5863
Rp5864
sg4634
g204
(g208
S'=\n\xd7\xa3p=\xe2\xbf'
p5865
tp5866
Rp5867
sg4638
g204
(g208
S'\xd7\xa3p=\n\xd7\xd3?'
p5868
tp5869
Rp5870
sg4642
g204
(g208
S'\xa4p=\n\xd7\xa3\xc0\xbf'
p5871
tp5872
Rp5873
sg4646
g204
(g208
S'\n\xd7\xa3p=\n\xf3\xbf'
p5874
tp5875
Rp5876
sg4650
g204
(g208
S'\x9a\x99\x99\x99\x99\x99\xe1\xbf'
p5877
tp5878
Rp5879
sg4654
g204
(g208
S'{\x14\xaeG\xe1z\xa4\xbf'
p5880
tp5881
Rp5882
sg4658
g204
(g208
S'\xd7\xa3p=\n\xd78@'
p5883
tp5884
Rp5885
sg4662
g204
(g208
S'\x9a\x99\x99\x99\x99\x99\xf1\xbf'
p5886
tp5887
Rp5888
sg4666
g204
(g208
S')\\\x8f\xc2\xf5(\xcc?'
p5889
tp5890
Rp5891
sg4670
g204
(g208
S'\xf6(\\\x8f\xc2u*\xc0'
p5892
tp5893
Rp5894
sg4674
g204
(g208
S'\xd7\xa3p=\n\xd7\xd3\xbf'
p5895
tp5896
Rp5897
sg4678
g204
(g208
S'\xf6(\\\x8f\xc2\xf57\xc0'
p5898
tp5899
Rp5900
sg4682
g204
(g208
S'H\xe1z\x14\xaeG-@'
p5901
tp5902
Rp5903
sg4686
g204
(g208
S'\xb8\x1e\x85\xebQ\xf86@'
p5904
tp5905
Rp5906
sg4690
g204
(g208
S'\x00H\xe1z\x14\xae\xd7\xbf'
p5907
tp5908
Rp5909
sa(dp5910
g4594
g204
(g208
S')\\\x8f\xc2\xf5(\xcc\xbf'
p5911
tp5912
Rp5913
sg4598
g204
(g208
S'\xa4p=\n\xd7\xa3\xc0\xbf'
p5914
tp5915
Rp5916
sg4602
g204
(g208
S'R\xb8\x1e\x85\xebQ\xf4\xbf'
p5917
tp5918
Rp5919
sg4606
g204
(g208
S'\x00\x00\x00\x00\x00\x00\xe0\xbf'
p5920
tp5921
Rp5922
sg4610
g204
(g208
S'\xe1z\x14\xaeG\xe1\x06\xc0'
p5923
tp5924
Rp5925
sg4614
g204
(g208
S'{\x14\xaeG\xe1z\xa4\xbf'
p5926
tp5927
Rp5928
sg4618
g204
(g208
S'333333\xc3\xbf'
p5929
tp5930
Rp5931
sg4622
g204
(g208
S'\xb8\x1e\x85\xebQ\xf86\xc0'
p5932
tp5933
Rp5934
sg4626
g204
(g208
S'\x00\x9a\x99\x99\x99\x99\xc9\xbf'
p5935
tp5936
Rp5937
sg4630
g204
(g208
S'\xd7\xa3p=\n\xd7\xd3?'
p5938
tp5939
Rp5940
sg4634
g204
(g208
S'\x00\x00\x00\x00\x00\x00\xe8\xbf'
p5941
tp5942
Rp5943
sg4638
g204
(g208
S'\x9a\x99\x99\x99\x99\x99\xd9?'
p5944
tp5945
Rp5946
sg4642
g204
(g208
S')\\\x8f\xc2\xf5(\xcc\xbf'
p5947
tp5948
Rp5949
sg4646
g204
(g208
S'R\xb8\x1e\x85\xebQ\xf4\xbf'
p5950
tp5951
Rp5952
sg4650
g204
(g208
S'z\x14\xaeG\xe1z\xe4\xbf'
p5953
tp5954
Rp5955
sg4654
g204
(g208
S'{\x14\xaeG\xe1z\xa4\xbf'
p5956
tp5957
Rp5958
sg4658
g204
(g208
S'\xd7\xa3p=\n\xd78@'
p5959
tp5960
Rp5961
sg4662
g204
(g208
S'\xaeG\xe1z\x14\xae\xff?'
p5962
tp5963
Rp5964
sg4666
g204
(g208
S')\\\x8f\xc2\xf5(\xcc?'
p5965
tp5966
Rp5967
sg4670
g204
(g208
S'\xd7\xa3p=\nW+\xc0'
p5968
tp5969
Rp5970
sg4674
g204
(g208
S'\xa4p=\n\xd7\xa3\x02\xc0'
p5971
tp5972
Rp5973
sg4678
g204
(g208
S'q=\n\xd7\xa3\xb07\xc0'
p5974
tp5975
Rp5976
sg4682
g204
(g208
S'\x14\xaeG\xe1z\x94,@'
p5977
tp5978
Rp5979
sg4686
g204
(g208
S'\xb8\x1e\x85\xebQ\xf86@'
p5980
tp5981
Rp5982
sg4690
g204
(g208
S'\x00H\xe1z\x14\xae\xd7\xbf'
p5983
tp5984
Rp5985
sa(dp5986
g4594
g204
(g208
S')\\\x8f\xc2\xf5(\xcc\xbf'
p5987
tp5988
Rp5989
sg4598
g204
(g208
S'\xa4p=\n\xd7\xa3\xc0\xbf'
p5990
tp5991
Rp5992
sg4602
g204
(g208
S'\xc3\xf5(\\\x8f\xc2\xf5\xbf'
p5993
tp5994
Rp5995
sg4606
g204
(g208
S'\x00{\x14\xaeG\xe1\xca\xbf'
p5996
tp5997
Rp5998
sg4610
g204
(g208
S'\x9a\x99\x99\x99\x99\x99\x07\xc0'
p5999
tp6000
Rp6001
sg4614
g204
(g208
S'\xa4p=\n\xd7\xa3\xc0\xbf'
p6002
tp6003
Rp6004
sg4618
g204
(g208
S'333333\xc3?'
p6005
tp6006
Rp6007
sg4622
g204
(g208
S'\xb8\x1e\x85\xebQ\xf86\xc0'
p6008
tp6009
Rp6010
sg4626
g204
(g208
S'\x00\x9a\x99\x99\x99\x99\xc9\xbf'
p6011
tp6012
Rp6013
sg4630
g204
(g208
S'\xd7\xa3p=\n\xd7\xd3?'
p6014
tp6015
Rp6016
sg4634
g204
(g208
S'\x00\x00\x00\x00\x00\x00\xe8\xbf'
p6017
tp6018
Rp6019
sg4638
g204
(g208
S'\xd7\xa3p=\n\xd7\xd3?'
p6020
tp6021
Rp6022
sg4642
g204
(g208
S')\\\x8f\xc2\xf5(\xcc\xbf'
p6023
tp6024
Rp6025
sg4646
g204
(g208
S'R\xb8\x1e\x85\xebQ\xf4\xbf'
p6026
tp6027
Rp6028
sg4650
g204
(g208
S'z\x14\xaeG\xe1z\xe4\xbf'
p6029
tp6030
Rp6031
sg4654
g204
(g208
S'{\x14\xaeG\xe1z\xa4\xbf'
p6032
tp6033
Rp6034
sg4658
g204
(g208
S'\xd7\xa3p=\n\xd78@'
p6035
tp6036
Rp6037
sg4662
g204
(g208
S'\n\xd7\xa3p=\n\x11@'
p6038
tp6039
Rp6040
sg4666
g204
(g208
S')\\\x8f\xc2\xf5(\xcc?'
p6041
tp6042
Rp6043
sg4670
g204
(g208
S'\x85\xebQ\xb8\x1e\x85+\xc0'
p6044
tp6045
Rp6046
sg4674
g204
(g208
S'\n\xd7\xa3p=\n\x11\xc0'
p6047
tp6048
Rp6049
sg4678
g204
(g208
S'q=\n\xd7\xa3\xb07\xc0'
p6050
tp6051
Rp6052
sg4682
g204
(g208
S'\x14\xaeG\xe1z\x94,@'
p6053
tp6054
Rp6055
sg4686
g204
(g208
S'\xcc\xcc\xcc\xcc\xcc\x0c7@'
p6056
tp6057
Rp6058
sg4690
g204
(g208
S'\x00H\xe1z\x14\xae\xd7\xbf'
p6059
tp6060
Rp6061
sa(dp6062
g4594
g204
(g208
S')\\\x8f\xc2\xf5(\xcc\xbf'
p6063
tp6064
Rp6065
sg4598
g204
(g208
S'\xa4p=\n\xd7\xa3\xc0\xbf'
p6066
tp6067
Rp6068
sg4602
g204
(g208
S'333333\xf7\xbf'
p6069
tp6070
Rp6071
sg4606
g204
(g208
S'@\xe1z\x14\xaeG\xe9\xbf'
p6072
tp6073
Rp6074
sg4610
g204
(g208
S'\x9a\x99\x99\x99\x99\x99\x07\xc0'
p6075
tp6076
Rp6077
sg4614
g204
(g208
S'\xa4p=\n\xd7\xa3\xc0\xbf'
p6078
tp6079
Rp6080
sg4618
g204
(g208
S'333333\xc3?'
p6081
tp6082
Rp6083
sg4622
g204
(g208
S'\xe0z\x14\xaeG\xe16\xc0'
p6084
tp6085
Rp6086
sg4626
g204
(g208
S'\x00\x9a\x99\x99\x99\x99\xc9\xbf'
p6087
tp6088
Rp6089
sg4630
g204
(g208
S'\xd7\xa3p=\n\xd7\xd3?'
p6090
tp6091
Rp6092
sg4634
g204
(g208
S'\x1f\x85\xebQ\xb8\x1e\xe5\xbf'
p6093
tp6094
Rp6095
sg4638
g204
(g208
S')\\\x8f\xc2\xf5(\xcc?'
p6096
tp6097
Rp6098
sg4642
g204
(g208
S')\\\x8f\xc2\xf5(\xcc\xbf'
p6099
tp6100
Rp6101
sg4646
g204
(g208
S'R\xb8\x1e\x85\xebQ\xf4\xbf'
p6102
tp6103
Rp6104
sg4650
g204
(g208
S'\\\x8f\xc2\xf5(\\\xe7\xbf'
p6105
tp6106
Rp6107
sg4654
g204
(g208
S'{\x14\xaeG\xe1z\xa4\xbf'
p6108
tp6109
Rp6110
sg4658
g204
(g208
S'\xd7\xa3p=\n\xd78@'
p6111
tp6112
Rp6113
sg4662
g204
(g208
S')\\\x8f\xc2\xf5(\x19@'
p6114
tp6115
Rp6116
sg4666
g204
(g208
S')\\\x8f\xc2\xf5(\xcc?'
p6117
tp6118
Rp6119
sg4670
g204
(g208
S'\x85\xebQ\xb8\x1e\x85+\xc0'
p6120
tp6121
Rp6122
sg4674
g204
(g208
S')\\\x8f\xc2\xf5(\x19\xc0'
p6123
tp6124
Rp6125
sg4678
g204
(g208
S'q=\n\xd7\xa3\xb07\xc0'
p6126
tp6127
Rp6128
sg4682
g204
(g208
S'\x14\xaeG\xe1z\x94,@'
p6129
tp6130
Rp6131
sg4686
g204
(g208
S'\xb8\x1e\x85\xebQ\xf86@'
p6132
tp6133
Rp6134
sg4690
g204
(g208
S'\x00H\xe1z\x14\xae\xd7\xbf'
p6135
tp6136
Rp6137
sa(dp6138
g4594
g204
(g208
S')\\\x8f\xc2\xf5(\xcc\xbf'
p6139
tp6140
Rp6141
sg4598
g204
(g208
S'\xa4p=\n\xd7\xa3\xc0\xbf'
p6142
tp6143
Rp6144
sg4602
g204
(g208
S'\x14\xaeG\xe1z\x14\xfa\xbf'
p6145
tp6146
Rp6147
sg4606
g204
(g208
S'\x00{\x14\xaeG\xe1\xca\xbf'
p6148
tp6149
Rp6150
sg4610
g204
(g208
S'=\n\xd7\xa3p=\x08\xc0'
p6151
tp6152
Rp6153
sg4614
g204
(g208
S'\xa4p=\n\xd7\xa3\xc0\xbf'
p6154
tp6155
Rp6156
sg4618
g204
(g208
S'333333\xc3?'
p6157
tp6158
Rp6159
sg4622
g204
(g208
S'\xe0z\x14\xaeG\xe16\xc0'
p6160
tp6161
Rp6162
sg4626
g204
(g208
S'\x00\xc3\xf5(\\\x8f\xd2\xbf'
p6163
tp6164
Rp6165
sg4630
g204
(g208
S'\xd7\xa3p=\n\xd7\xd3?'
p6166
tp6167
Rp6168
sg4634
g204
(g208
S'\x00\x00\x00\x00\x00\x00\xe8\xbf'
p6169
tp6170
Rp6171
sg4638
g204
(g208
S')\\\x8f\xc2\xf5(\xcc?'
p6172
tp6173
Rp6174
sg4642
g204
(g208
S')\\\x8f\xc2\xf5(\xcc\xbf'
p6175
tp6176
Rp6177
sg4646
g204
(g208
S'\n\xd7\xa3p=\n\xf3\xbf'
p6178
tp6179
Rp6180
sg4650
g204
(g208
S'\\\x8f\xc2\xf5(\\\xe7\xbf'
p6181
tp6182
Rp6183
sg4654
g204
(g208
S'{\x14\xaeG\xe1z\xa4\xbf'
p6184
tp6185
Rp6186
sg4658
g204
(g208
S'\xd7\xa3p=\n\xd78@'
p6187
tp6188
Rp6189
sg4662
g204
(g208
S'\x1f\x85\xebQ\xb8\x9e @'
p6190
tp6191
Rp6192
sg4666
g204
(g208
S')\\\x8f\xc2\xf5(\xcc?'
p6193
tp6194
Rp6195
sg4670
g204
(g208
S'33333\xb3+\xc0'
p6196
tp6197
Rp6198
sg4674
g204
(g208
S'\x1f\x85\xebQ\xb8\x9e \xc0'
p6199
tp6200
Rp6201
sg4678
g204
(g208
S'q=\n\xd7\xa3\xb07\xc0'
p6202
tp6203
Rp6204
sg4682
g204
(g208
S'ffffff,@'
p6205
tp6206
Rp6207
sg4686
g204
(g208
S'\xb8\x1e\x85\xebQ\xf86@'
p6208
tp6209
Rp6210
sg4690
g204
(g208
S'\x00H\xe1z\x14\xae\xd7\xbf'
p6211
tp6212
Rp6213
sa(dp6214
g4594
g204
(g208
S')\\\x8f\xc2\xf5(\xcc\xbf'
p6215
tp6216
Rp6217
sg4598
g204
(g208
S')\\\x8f\xc2\xf5(\xcc\xbf'
p6218
tp6219
Rp6220
sg4602
g204
(g208
S'R\xb8\x1e\x85\xebQ\xf4\xbf'
p6221
tp6222
Rp6223
sg4606
g204
(g208
S'\x00\x00\x00\x00\x00\x00\xe0\xbf'
p6224
tp6225
Rp6226
sg4610
g204
(g208
S')\\\x8f\xc2\xf5(\x06\xc0'
p6227
tp6228
Rp6229
sg4614
g204
(g208
S'\xa4p=\n\xd7\xa3\xc0\xbf'
p6230
tp6231
Rp6232
sg4618
g204
(g208
S'333333\xc3?'
p6233
tp6234
Rp6235
sg4622
g204
(g208
S'\xcc\xcc\xcc\xcc\xcc\x8c8\xc0'
p6236
tp6237
Rp6238
sg4626
g204
(g208
S'\x00\xc3\xf5(\\\x8f\xd2\xbf'
p6239
tp6240
Rp6241
sg4630
g204
(g208
S'\x9a\x99\x99\x99\x99\x99\xd9?'
p6242
tp6243
Rp6244
sg4634
g204
(g208
S'\x9a\x99\x99\x99\x99\x99\xd9\xbf'
p6245
tp6246
Rp6247
sg4638
g204
(g208
S'\xd7\xa3p=\n\xd7\xd3?'
p6248
tp6249
Rp6250
sg4642
g204
(g208
S')\\\x8f\xc2\xf5(\xcc\xbf'
p6251
tp6252
Rp6253
sg4646
g204
(g208
S'q=\n\xd7\xa3p\xed\xbf'
p6254
tp6255
Rp6256
sg4650
g204
(g208
S'z\x14\xaeG\xe1z\xe4\xbf'
p6257
tp6258
Rp6259
sg4654
g204
(g208
S'{\x14\xaeG\xe1z\xa4\xbf'
p6260
tp6261
Rp6262
sg4658
g204
(g208
S'\x85\xebQ\xb8\x1e\xc5:@'
p6263
tp6264
Rp6265
sg4662
g204
(g208
S'\\\x8f\xc2\xf5(\\\xfb\xbf'
p6266
tp6267
Rp6268
sg4666
g204
(g208
S')\\\x8f\xc2\xf5(\xcc?'
p6269
tp6270
Rp6271
sg4670
g204
(g208
S'\n\xd7\xa3p=\n,\xc0'
p6272
tp6273
Rp6274
sg4674
g204
(g208
S'\xd7\xa3p=\n\xd7\xd3\xbf'
p6275
tp6276
Rp6277
sg4678
g204
(g208
S'\xf6(\\\x8f\xc2\xb59\xc0'
p6278
tp6279
Rp6280
sg4682
g204
(g208
S'\xb8\x1e\x85\xebQ8,@'
p6281
tp6282
Rp6283
sg4686
g204
(g208
S'\xf4(\\\x8f\xc2u8@'
p6284
tp6285
Rp6286
sg4690
g204
(g208
S'\x00H\xe1z\x14\xae\xd7\xbf'
p6287
tp6288
Rp6289
sa(dp6290
g4594
g204
(g208
S')\\\x8f\xc2\xf5(\xcc\xbf'
p6291
tp6292
Rp6293
sg4598
g204
(g208
S')\\\x8f\xc2\xf5(\xcc\xbf'
p6294
tp6295
Rp6296
sg4602
g204
(g208
S'=\n\xd7\xa3p=\xfe\xbf'
p6297
tp6298
Rp6299
sg4606
g204
(g208
S'\x00{\x14\xaeG\xe1\xca\xbf'
p6300
tp6301
Rp6302
sg4610
g204
(g208
S'\n\xd7\xa3p=\n\x0b\xc0'
p6303
tp6304
Rp6305
sg4614
g204
(g208
S'\xa4p=\n\xd7\xa3\xc0\xbf'
p6306
tp6307
Rp6308
sg4618
g204
(g208
S'333333\xc3\xbf'
p6309
tp6310
Rp6311
sg4622
g204
(g208
S'\xa4p=\n\xd7\xa38\xc0'
p6312
tp6313
Rp6314
sg4626
g204
(g208
S'\x00\xc3\xf5(\\\x8f\xd2\xbf'
p6315
tp6316
Rp6317
sg4630
g204
(g208
S'\xd7\xa3p=\n\xd7\xd3?'
p6318
tp6319
Rp6320
sg4634
g204
(g208
S'\x9a\x99\x99\x99\x99\x99\xf1\xbf'
p6321
tp6322
Rp6323
sg4638
g204
(g208
S'\xa4p=\n\xd7\xa3\xc0?'
p6324
tp6325
Rp6326
sg4642
g204
(g208
S')\\\x8f\xc2\xf5(\xcc\xbf'
p6327
tp6328
Rp6329
sg4646
g204
(g208
S'q=\n\xd7\xa3p\xed\xbf'
p6330
tp6331
Rp6332
sg4650
g204
(g208
S'z\x14\xaeG\xe1z\xe4\xbf'
p6333
tp6334
Rp6335
sg4654
g204
(g208
S'\xa4p=\n\xd7\xa3\xc0\xbf'
p6336
tp6337
Rp6338
sg4658
g204
(g208
S'H\xe1z\x14\xae\x07;@'
p6339
tp6340
Rp6341
sg4662
g204
(g208
S'\xa4p=\n\xd7\xa3\xc0\xbf'
p6342
tp6343
Rp6344
sg4666
g204
(g208
S')\\\x8f\xc2\xf5(\xcc?'
p6345
tp6346
Rp6347
sg4670
g204
(g208
S'\xf6(\\\x8f\xc2u*\xc0'
p6348
tp6349
Rp6350
sg4674
g204
(g208
S'\xd7\xa3p=\n\xd7\xd3?'
p6351
tp6352
Rp6353
sg4678
g204
(g208
S'\n\xd7\xa3p=\x8a9\xc0'
p6354
tp6355
Rp6356
sg4682
g204
(g208
S'\xecQ\xb8\x1e\x85\xeb,@'
p6357
tp6358
Rp6359
sg4686
g204
(g208
S'\xf4(\\\x8f\xc2u8@'
p6360
tp6361
Rp6362
sg4690
g204
(g208
S'\x00H\xe1z\x14\xae\xd7\xbf'
p6363
tp6364
Rp6365
sa(dp6366
g4594
g204
(g208
S')\\\x8f\xc2\xf5(\xcc\xbf'
p6367
tp6368
Rp6369
sg4598
g204
(g208
S')\\\x8f\xc2\xf5(\xcc\xbf'
p6370
tp6371
Rp6372
sg4602
g204
(g208
S'\xecQ\xb8\x1e\x85\xeb\x01\xc0'
p6373
tp6374
Rp6375
sg4606
g204
(g208
S'\x00\x00\x00\x00\x00\x00\xe0\xbf'
p6376
tp6377
Rp6378
sg4610
g204
(g208
S'\xb8\x1e\x85\xebQ\xb8\x10\xc0'
p6379
tp6380
Rp6381
sg4614
g204
(g208
S'\xa4p=\n\xd7\xa3\xc0\xbf'
p6382
tp6383
Rp6384
sg4618
g204
(g208
S'333333\xc3\xbf'
p6385
tp6386
Rp6387
sg4622
g204
(g208
S'\xa4p=\n\xd7\xa38\xc0'
p6388
tp6389
Rp6390
sg4626
g204
(g208
S'\x00\xc3\xf5(\\\x8f\xd2\xbf'
p6391
tp6392
Rp6393
sg4630
g204
(g208
S'\xd7\xa3p=\n\xd7\xd3?'
p6394
tp6395
Rp6396
sg4634
g204
(g208
S'\x9a\x99\x99\x99\x99\x99\xf1\xbf'
p6397
tp6398
Rp6399
sg4638
g204
(g208
S'{\x14\xaeG\xe1z\xa4?'
p6400
tp6401
Rp6402
sg4642
g204
(g208
S')\\\x8f\xc2\xf5(\xcc\xbf'
p6403
tp6404
Rp6405
sg4646
g204
(g208
S'q=\n\xd7\xa3p\xed\xbf'
p6406
tp6407
Rp6408
sg4650
g204
(g208
S'z\x14\xaeG\xe1z\xe4\xbf'
p6409
tp6410
Rp6411
sg4654
g204
(g208
S'\xa4p=\n\xd7\xa3\xc0\xbf'
p6412
tp6413
Rp6414
sg4658
g204
(g208
S'H\xe1z\x14\xae\x07;@'
p6415
tp6416
Rp6417
sg4662
g204
(g208
S'\xaeG\xe1z\x14\xae\xff?'
p6418
tp6419
Rp6420
sg4666
g204
(g208
S')\\\x8f\xc2\xf5(\xcc?'
p6421
tp6422
Rp6423
sg4670
g204
(g208
S'{\x14\xaeG\xe1\xfa*\xc0'
p6424
tp6425
Rp6426
sg4674
g204
(g208
S'\xecQ\xb8\x1e\x85\xeb\x01\xc0'
p6427
tp6428
Rp6429
sg4678
g204
(g208
S'\xe1z\x14\xaeG\xa19\xc0'
p6430
tp6431
Rp6432
sg4682
g204
(g208
S'\x14\xaeG\xe1z\x94,@'
p6433
tp6434
Rp6435
sg4686
g204
(g208
S'\xf4(\\\x8f\xc2u8@'
p6436
tp6437
Rp6438
sg4690
g204
(g208
S'\x00H\xe1z\x14\xae\xd7\xbf'
p6439
tp6440
Rp6441
sasg163
(lp6442
(dp6443
S'l_elbow_y'
p6444
g204
(g208
S'{\x14\xaeG\xe1z\xa4\xbf'
p6445
tp6446
Rp6447
sS'r_elbow_y'
p6448
g204
(g208
S')\\\x8f\xc2\xf5(\xcc\xbf'
p6449
tp6450
Rp6451
sS'r_knee_y'
p6452
g204
(g208
S')\\\x8f\xc2\xf5(\xcc?'
p6453
tp6454
Rp6455
sS'head_y'
p6456
g204
(g208
S'\x00\x00\x00\x00\x00\x00\xe0\xbf'
p6457
tp6458
Rp6459
sS'r_ankle_y'
p6460
g204
(g208
S')\\\x8f\xc2\xf5(\xcc\xbf'
p6461
tp6462
Rp6463
sS'r_arm_z'
p6464
g204
(g208
S'{\x14\xaeG\xe1z\xa4?'
p6465
tp6466
Rp6467
sS'head_z'
p6468
g204
(g208
S'333333\xc3?'
p6469
tp6470
Rp6471
sS'r_shoulder_x'
p6472
g204
(g208
S'\xcc\xcc\xcc\xcc\xcc\x0c7\xc0'
p6473
tp6474
Rp6475
sS'r_shoulder_y'
p6476
g204
(g208
S'\x80\x99\x99\x99\x99\x99\xf9\xbf'
p6477
tp6478
Rp6479
sS'r_hip_z'
p6480
g204
(g208
S'\xa4p=\n\xd7\xa3\xc0?'
p6481
tp6482
Rp6483
sS'r_hip_x'
p6484
g204
(g208
S'333333\xf7?'
p6485
tp6486
Rp6487
sS'r_hip_y'
p6488
g204
(g208
S'{\x14\xaeG\xe1z\xa4\xbf'
p6489
tp6490
Rp6491
sS'l_arm_z'
p6492
g204
(g208
S'\xa4p=\n\xd7\xa3\xc0?'
p6493
tp6494
Rp6495
sS'l_hip_x'
p6496
g204
(g208
S'\x9a\x99\x99\x99\x99\x99\xf1?'
p6497
tp6498
Rp6499
sS'l_hip_y'
p6500
g204
(g208
S'\xa4p=\n\xd7#(\xc0'
p6501
tp6502
Rp6503
sS'l_hip_z'
p6504
g204
(g208
S'\n\xd7\xa3p=\n\xf3\xbf'
p6505
tp6506
Rp6507
sS'abs_x'
p6508
g204
(g208
S'\xecQ\xb8\x1e\x85\xab5@'
p6509
tp6510
Rp6511
sS'abs_y'
p6512
g204
(g208
S'\xe1z\x14\xaeG\xe1\x13\xc0'
p6513
tp6514
Rp6515
sS'abs_z'
p6516
g204
(g208
S'\n\xd7\xa3p=\n\xf3\xbf'
p6517
tp6518
Rp6519
sS'l_ankle_y'
p6520
g204
(g208
S'\x9a\x99\x99\x99\x99\x99&\xc0'
p6521
tp6522
Rp6523
sS'bust_y'
p6524
g204
(g208
S'\x85\xebQ\xb8\x1e\x05%@'
p6525
tp6526
Rp6527
sS'bust_x'
p6528
g204
(g208
S')\\\x8f\xc2\xf5\xa80\xc0'
p6529
tp6530
Rp6531
sS'l_knee_y'
p6532
g204
(g208
S'\n\xd7\xa3p=\x8a%@'
p6533
tp6534
Rp6535
sS'l_shoulder_x'
p6536
g204
(g208
S'\x0c\xd7\xa3p=\xca6@'
p6537
tp6538
Rp6539
sS'l_shoulder_y'
p6540
g204
(g208
S'\x80=\n\xd7\xa3p\xf5\xbf'
p6541
tp6542
Rp6543
sa(dp6544
g6444
g204
(g208
S'{\x14\xaeG\xe1z\xa4\xbf'
p6545
tp6546
Rp6547
sg6448
g204
(g208
S')\\\x8f\xc2\xf5(\xcc\xbf'
p6548
tp6549
Rp6550
sg6452
g204
(g208
S'\xa4p=\n\xd7\xa3\xc0\xbf'
p6551
tp6552
Rp6553
sg6456
g204
(g208
S'\x00{\x14\xaeG\xe1\xca\xbf'
p6554
tp6555
Rp6556
sg6460
g204
(g208
S')\\\x8f\xc2\xf5(\xcc\xbf'
p6557
tp6558
Rp6559
sg6464
g204
(g208
S'{\x14\xaeG\xe1z\xa4?'
p6560
tp6561
Rp6562
sg6468
g204
(g208
S'333333\xc3\xbf'
p6563
tp6564
Rp6565
sg6472
g204
(g208
S'\xa4p=\n\xd7#7\xc0'
p6566
tp6567
Rp6568
sg6476
g204
(g208
S'\x00\xc3\xf5(\\\x8f\xd2\xbf'
p6569
tp6570
Rp6571
sg6480
g204
(g208
S'\xd7\xa3p=\n\xd7\xd3?'
p6572
tp6573
Rp6574
sg6484
g204
(g208
S'q=\n\xd7\xa3p\xed\xbf'
p6575
tp6576
Rp6577
sg6488
g204
(g208
S'\xa4p=\n\xd7\xa3\xc0\xbf'
p6578
tp6579
Rp6580
sg6492
g204
(g208
S'{\x14\xaeG\xe1z\xa4?'
p6581
tp6582
Rp6583
sg6496
g204
(g208
S'\x00\x00\x00\x00\x00\x00\xe8\xbf'
p6584
tp6585
Rp6586
sg6500
g204
(g208
S"\x9a\x99\x99\x99\x99\x99'\xc0"
p6587
tp6588
Rp6589
sg6504
g204
(g208
S'{\x14\xaeG\xe1z\xa4\xbf'
p6590
tp6591
Rp6592
sg6508
g204
(g208
S'\xc3\xf5(\\\x8f\x029@'
p6593
tp6594
Rp6595
sg6512
g204
(g208
S'\n\xd7\xa3p=\n\x11\xc0'
p6596
tp6597
Rp6598
sg6516
g204
(g208
S'{\x14\xaeG\xe1z\xa4?'
p6599
tp6600
Rp6601
sg6520
g204
(g208
S'\n\xd7\xa3p=\x8a%\xc0'
p6602
tp6603
Rp6604
sg6524
g204
(g208
S'q=\n\xd7\xa3p\x05@'
p6605
tp6606
Rp6607
sg6528
g204
(g208
S'H\xe1z\x14\xae\xc77\xc0'
p6608
tp6609
Rp6610
sg6532
g204
(g208
S'\n\xd7\xa3p=\x8a%@'
p6611
tp6612
Rp6613
sg6536
g204
(g208
S'\xe0z\x14\xaeG\xe16@'
p6614
tp6615
Rp6616
sg6540
g204
(g208
S'\x00=\n\xd7\xa3p\xdd\xbf'
p6617
tp6618
Rp6619
sa(dp6620
g6444
g204
(g208
S'{\x14\xaeG\xe1z\xa4\xbf'
p6621
tp6622
Rp6623
sg6448
g204
(g208
S')\\\x8f\xc2\xf5(\xcc\xbf'
p6624
tp6625
Rp6626
sg6452
g204
(g208
S'\xa4p=\n\xd7\xa3\xc0\xbf'
p6627
tp6628
Rp6629
sg6456
g204
(g208
S'\x00{\x14\xaeG\xe1\xca\xbf'
p6630
tp6631
Rp6632
sg6460
g204
(g208
S'\xd7\xa3p=\n\xd7\xd3?'
p6633
tp6634
Rp6635
sg6464
g204
(g208
S'{\x14\xaeG\xe1z\xa4?'
p6636
tp6637
Rp6638
sg6468
g204
(g208
S')\\\x8f\xc2\xf5(\xdc\xbf'
p6639
tp6640
Rp6641
sg6472
g204
(g208
S'\xa4p=\n\xd7\xa38\xc0'
p6642
tp6643
Rp6644
sg6476
g204
(g208
S'\x00\xc3\xf5(\\\x8f\xd2\xbf'
p6645
tp6646
Rp6647
sg6480
g204
(g208
S'\xd7\xa3p=\n\xd7\xd3?'
p6648
tp6649
Rp6650
sg6484
g204
(g208
S')\\\x8f\xc2\xf5(\xf0\xbf'
p6651
tp6652
Rp6653
sg6488
g204
(g208
S')\\\x8f\xc2\xf5(\xcc\xbf'
p6654
tp6655
Rp6656
sg6492
g204
(g208
S'{\x14\xaeG\xe1z\xa4?'
p6657
tp6658
Rp6659
sg6496
g204
(g208
S'\x00\x00\x00\x00\x00\x00\xe8\xbf'
p6660
tp6661
Rp6662
sg6500
g204
(g208
S'\xa4p=\n\xd7#(\xc0'
p6663
tp6664
Rp6665
sg6504
g204
(g208
S'\xa4p=\n\xd7\xa3\xc0\xbf'
p6666
tp6667
Rp6668
sg6508
g204
(g208
S'H\xe1z\x14\xae\x07;@'
p6669
tp6670
Rp6671
sg6512
g204
(g208
S'\n\xd7\xa3p=\n\x17\xc0'
p6672
tp6673
Rp6674
sg6516
g204
(g208
S'{\x14\xaeG\xe1z\xa4?'
p6675
tp6676
Rp6677
sg6520
g204
(g208
S'\n\xd7\xa3p=\x8a%\xc0'
p6678
tp6679
Rp6680
sg6524
g204
(g208
S'\x8f\xc2\xf5(\\\x8f\x0e@'
p6681
tp6682
Rp6683
sg6528
g204
(g208
S'q=\n\xd7\xa309\xc0'
p6684
tp6685
Rp6686
sg6532
g204
(g208
S'\n\xd7\xa3p=\x8a%@'
p6687
tp6688
Rp6689
sg6536
g204
(g208
S' \x85\xebQ\xb8^8@'
p6690
tp6691
Rp6692
sg6540
g204
(g208
S'\x00=\n\xd7\xa3p\xdd\xbf'
p6693
tp6694
Rp6695
sa(dp6696
g6444
g204
(g208
S'{\x14\xaeG\xe1z\xa4\xbf'
p6697
tp6698
Rp6699
sg6448
g204
(g208
S')\\\x8f\xc2\xf5(\xcc\xbf'
p6700
tp6701
Rp6702
sg6452
g204
(g208
S'\xe1z\x14\xaeG\xe1\xea\xbf'
p6703
tp6704
Rp6705
sg6456
g204
(g208
S'\x00{\x14\xaeG\xe1\xca\xbf'
p6706
tp6707
Rp6708
sg6460
g204
(g208
S'\xa4p=\n\xd7\xa3\xf8\xbf'
p6709
tp6710
Rp6711
sg6464
g204
(g208
S'\xa4p=\n\xd7\xa3\xc0?'
p6712
tp6713
Rp6714
sg6468
g204
(g208
S'333333\xc3\xbf'
p6715
tp6716
Rp6717
sg6472
g204
(g208
S'hffff\xe68\xc0'
p6718
tp6719
Rp6720
sg6476
g204
(g208
S'\x00\x9a\x99\x99\x99\x99\xc9\xbf'
p6721
tp6722
Rp6723
sg6480
g204
(g208
S')\\\x8f\xc2\xf5(\xcc?'
p6724
tp6725
Rp6726
sg6484
g204
(g208
S')\\\x8f\xc2\xf5(\xf0\xbf'
p6727
tp6728
Rp6729
sg6488
g204
(g208
S'\xa4p=\n\xd7\xa3\xc0?'
p6730
tp6731
Rp6732
sg6492
g204
(g208
S'{\x14\xaeG\xe1z\xa4?'
p6733
tp6734
Rp6735
sg6496
g204
(g208
S'\x00\x00\x00\x00\x00\x00\xe8\xbf'
p6736
tp6737
Rp6738
sg6500
g204
(g208
S"\x9a\x99\x99\x99\x99\x99'\xc0"
p6739
tp6740
Rp6741
sg6504
g204
(g208
S'{\x14\xaeG\xe1z\xa4\xbf'
p6742
tp6743
Rp6744
sg6508
g204
(g208
S'H\xe1z\x14\xae\x07;@'
p6745
tp6746
Rp6747
sg6512
g204
(g208
S'ffffff\x11\xc0'
p6748
tp6749
Rp6750
sg6516
g204
(g208
S'{\x14\xaeG\xe1z\xa4?'
p6751
tp6752
Rp6753
sg6520
g204
(g208
S'\xb8\x1e\x85\xebQ\xb8%\xc0'
p6754
tp6755
Rp6756
sg6524
g204
(g208
S'333333\r@'
p6757
tp6758
Rp6759
sg6528
g204
(g208
S'33333s9\xc0'
p6760
tp6761
Rp6762
sg6532
g204
(g208
S'{\x14\xaeG\xe1z$@'
p6763
tp6764
Rp6765
sg6536
g204
(g208
S' \x85\xebQ\xb8^8@'
p6766
tp6767
Rp6768
sg6540
g204
(g208
S'\x00H\xe1z\x14\xae\xd7\xbf'
p6769
tp6770
Rp6771
sa(dp6772
g6444
g204
(g208
S'{\x14\xaeG\xe1z\xa4\xbf'
p6773
tp6774
Rp6775
sg6448
g204
(g208
S')\\\x8f\xc2\xf5(\xcc\xbf'
p6776
tp6777
Rp6778
sg6452
g204
(g208
S')\\\x8f\xc2\xf5(\xf0\xbf'
p6779
tp6780
Rp6781
sg6456
g204
(g208
S'\x00{\x14\xaeG\xe1\xca\xbf'
p6782
tp6783
Rp6784
sg6460
g204
(g208
S'\xc3\xf5(\\\x8f\xc2\xf5\xbf'
p6785
tp6786
Rp6787
sg6464
g204
(g208
S'\xa4p=\n\xd7\xa3\xc0?'
p6788
tp6789
Rp6790
sg6468
g204
(g208
S'333333\xc3?'
p6791
tp6792
Rp6793
sg6472
g204
(g208
S'hffff\xe68\xc0'
p6794
tp6795
Rp6796
sg6476
g204
(g208
S'\x00\x9a\x99\x99\x99\x99\xc9\xbf'
p6797
tp6798
Rp6799
sg6480
g204
(g208
S'\xd7\xa3p=\n\xd7\xd3?'
p6800
tp6801
Rp6802
sg6484
g204
(g208
S'q=\n\xd7\xa3p\xed\xbf'
p6803
tp6804
Rp6805
sg6488
g204
(g208
S'\xb8\x1e\x85\xebQ\xb8\xde\xbf'
p6806
tp6807
Rp6808
sg6492
g204
(g208
S'{\x14\xaeG\xe1z\xa4?'
p6809
tp6810
Rp6811
sg6496
g204
(g208
S'\x00\x00\x00\x00\x00\x00\xe8\xbf'
p6812
tp6813
Rp6814
sg6500
g204
(g208
S'{\x14\xaeG\xe1z(\xc0'
p6815
tp6816
Rp6817
sg6504
g204
(g208
S'{\x14\xaeG\xe1z\xa4\xbf'
p6818
tp6819
Rp6820
sg6508
g204
(g208
S'\x1f\x85\xebQ\xb8\x1e;@'
p6821
tp6822
Rp6823
sg6512
g204
(g208
S'\xb8\x1e\x85\xebQ\xb8\xde\xbf'
p6824
tp6825
Rp6826
sg6516
g204
(g208
S'{\x14\xaeG\xe1z\xa4?'
p6827
tp6828
Rp6829
sg6520
g204
(g208
S'\xb8\x1e\x85\xebQ\xb8%\xc0'
p6830
tp6831
Rp6832
sg6524
g204
(g208
S'\x9a\x99\x99\x99\x99\x99\xd9\xbf'
p6833
tp6834
Rp6835
sg6528
g204
(g208
S'\n\xd7\xa3p=\x8a9\xc0'
p6836
tp6837
Rp6838
sg6532
g204
(g208
S')\\\x8f\xc2\xf5\xa8$@'
p6839
tp6840
Rp6841
sg6536
g204
(g208
S' \x85\xebQ\xb8^8@'
p6842
tp6843
Rp6844
sg6540
g204
(g208
S'\x00=\n\xd7\xa3p\xdd\xbf'
p6845
tp6846
Rp6847
sa(dp6848
g6444
g204
(g208
S'{\x14\xaeG\xe1z\xa4\xbf'
p6849
tp6850
Rp6851
sg6448
g204
(g208
S')\\\x8f\xc2\xf5(\xcc\xbf'
p6852
tp6853
Rp6854
sg6452
g204
(g208
S'q=\n\xd7\xa3p\xed\xbf'
p6855
tp6856
Rp6857
sg6456
g204
(g208
S'\x00\x00\x00\x00\x00\x00\xe0\xbf'
p6858
tp6859
Rp6860
sg6460
g204
(g208
S'\xa4p=\n\xd7\xa3\xc0?'
p6861
tp6862
Rp6863
sg6464
g204
(g208
S'\xa4p=\n\xd7\xa3\xc0?'
p6864
tp6865
Rp6866
sg6468
g204
(g208
S'333333\xc3\xbf'
p6867
tp6868
Rp6869
sg6472
g204
(g208
S'(\\\x8f\xc2\xf5\xa8:\xc0'
p6870
tp6871
Rp6872
sg6476
g204
(g208
S'\x00\xc3\xf5(\\\x8f\xd2\xbf'
p6873
tp6874
Rp6875
sg6480
g204
(g208
S'\xd7\xa3p=\n\xd7\xd3?'
p6876
tp6877
Rp6878
sg6484
g204
(g208
S')\\\x8f\xc2\xf5(\xf0\xbf'
p6879
tp6880
Rp6881
sg6488
g204
(g208
S'=\n\xd7\xa3p=\xe2\xbf'
p6882
tp6883
Rp6884
sg6492
g204
(g208
S'{\x14\xaeG\xe1z\xa4?'
p6885
tp6886
Rp6887
sg6496
g204
(g208
S'\x00\x00\x00\x00\x00\x00\xe8\xbf'
p6888
tp6889
Rp6890
sg6500
g204
(g208
S'\xa4p=\n\xd7#(\xc0'
p6891
tp6892
Rp6893
sg6504
g204
(g208
S'{\x14\xaeG\xe1z\xa4\xbf'
p6894
tp6895
Rp6896
sg6508
g204
(g208
S'\xcd\xcc\xcc\xcc\xcc\x0c=@'
p6897
tp6898
Rp6899
sg6512
g204
(g208
S')\\\x8f\xc2\xf5(\x19\xc0'
p6900
tp6901
Rp6902
sg6516
g204
(g208
S'{\x14\xaeG\xe1z\xa4?'
p6903
tp6904
Rp6905
sg6520
g204
(g208
S'fffff\xe6%\xc0'
p6906
tp6907
Rp6908
sg6524
g204
(g208
S'{\x14\xaeG\xe1z\x12@'
p6909
tp6910
Rp6911
sg6528
g204
(g208
S'33333\xf3:\xc0'
p6912
tp6913
Rp6914
sg6532
g204
(g208
S'\\\x8f\xc2\xf5(\\%@'
p6915
tp6916
Rp6917
sg6536
g204
(g208
S'\x90\xc2\xf5(\\O:@'
p6918
tp6919
Rp6920
sg6540
g204
(g208
S'\x00=\n\xd7\xa3p\xdd\xbf'
p6921
tp6922
Rp6923
sa(dp6924
g6444
g204
(g208
S'{\x14\xaeG\xe1z\xa4\xbf'
p6925
tp6926
Rp6927
sg6448
g204
(g208
S'\xa4p=\n\xd7\xa3\xc0\xbf'
p6928
tp6929
Rp6930
sg6452
g204
(g208
S'\xe1z\x14\xaeG\xe1\xea?'
p6931
tp6932
Rp6933
sg6456
g204
(g208
S'\x00{\x14\xaeG\xe1\xca\xbf'
p6934
tp6935
Rp6936
sg6460
g204
(g208
S'\x00\x00\x00\x00\x00\x00\xe8?'
p6937
tp6938
Rp6939
sg6464
g204
(g208
S'\xa4p=\n\xd7\xa3\xc0?'
p6940
tp6941
Rp6942
sg6468
g204
(g208
S'333333\xc3\xbf'
p6943
tp6944
Rp6945
sg6472
g204
(g208
S'\x00\x00\x00\x00\x00\xc0:\xc0'
p6946
tp6947
Rp6948
sg6476
g204
(g208
S'\x00\x10\xaeG\xe1z\x94\xbf'
p6949
tp6950
Rp6951
sg6480
g204
(g208
S')\\\x8f\xc2\xf5(\xcc?'
p6952
tp6953
Rp6954
sg6484
g204
(g208
S'\x9a\x99\x99\x99\x99\x99\xf1\xbf'
p6955
tp6956
Rp6957
sg6488
g204
(g208
S'\x9a\x99\x99\x99\x99\x99\xd9?'
p6958
tp6959
Rp6960
sg6492
g204
(g208
S'{\x14\xaeG\xe1z\xa4?'
p6961
tp6962
Rp6963
sg6496
g204
(g208
S'\x00\x00\x00\x00\x00\x00\xe8\xbf'
p6964
tp6965
Rp6966
sg6500
g204
(g208
S"\x9a\x99\x99\x99\x99\x99'\xc0"
p6967
tp6968
Rp6969
sg6504
g204
(g208
S'\xa4p=\n\xd7\xa3\xc0\xbf'
p6970
tp6971
Rp6972
sg6508
g204
(g208
S'\xa4p=\n\xd7#=@'
p6973
tp6974
Rp6975
sg6512
g204
(g208
S')\\\x8f\xc2\xf5(\x13\xc0'
p6976
tp6977
Rp6978
sg6516
g204
(g208
S'{\x14\xaeG\xe1z\xa4?'
p6979
tp6980
Rp6981
sg6520
g204
(g208
S'fffff\xe6%\xc0'
p6982
tp6983
Rp6984
sg6524
g204
(g208
S'\xecQ\xb8\x1e\x85\xeb\r@'
p6985
tp6986
Rp6987
sg6528
g204
(g208
S'\xe1z\x14\xaeGa;\xc0'
p6988
tp6989
Rp6990
sg6532
g204
(g208
S'\xb8\x1e\x85\xebQ\xb8%@'
p6991
tp6992
Rp6993
sg6536
g204
(g208
S'\x90\xc2\xf5(\\O:@'
p6994
tp6995
Rp6996
sg6540
g204
(g208
S'\x00H\xe1z\x14\xae\xd7\xbf'
p6997
tp6998
Rp6999
sa(dp7000
g6444
g204
(g208
S'{\x14\xaeG\xe1z\xa4\xbf'
p7001
tp7002
Rp7003
sg6448
g204
(g208
S'\xa4p=\n\xd7\xa3\xc0\xbf'
p7004
tp7005
Rp7006
sg6452
g204
(g208
S'\xb8\x1e\x85\xebQ\xb8\xde\xbf'
p7007
tp7008
Rp7009
sg6456
g204
(g208
S'\x00{\x14\xaeG\xe1\xca\xbf'
p7010
tp7011
Rp7012
sg6460
g204
(g208
S'\xe1z\x14\xaeG\xe1\xea\xbf'
p7013
tp7014
Rp7015
sg6464
g204
(g208
S'{\x14\xaeG\xe1z\xa4?'
p7016
tp7017
Rp7018
sg6468
g204
(g208
S')\\\x8f\xc2\xf5(\xdc\xbf'
p7019
tp7020
Rp7021
sg6472
g204
(g208
S'\x00\x00\x00\x00\x00\xc0:\xc0'
p7022
tp7023
Rp7024
sg6476
g204
(g208
S'\x00\x9a\x99\x99\x99\x99\xc9\xbf'
p7025
tp7026
Rp7027
sg6480
g204
(g208
S')\\\x8f\xc2\xf5(\xcc?'
p7028
tp7029
Rp7030
sg6484
g204
(g208
S'333333\xf7\xbf'
p7031
tp7032
Rp7033
sg6488
g204
(g208
S'\x9a\x99\x99\x99\x99\x99\xd9?'
p7034
tp7035
Rp7036
sg6492
g204
(g208
S'{\x14\xaeG\xe1z\xa4?'
p7037
tp7038
Rp7039
sg6496
g204
(g208
S'\x00\x00\x00\x00\x00\x00\xe8\xbf'
p7040
tp7041
Rp7042
sg6500
g204
(g208
S"\xf6(\\\x8f\xc2\xf5'\xc0"
p7043
tp7044
Rp7045
sg6504
g204
(g208
S'\xa4p=\n\xd7\xa3\xc0?'
p7046
tp7047
Rp7048
sg6508
g204
(g208
S'\xcd\xcc\xcc\xcc\xcc\x0c=@'
p7049
tp7050
Rp7051
sg6512
g204
(g208
S')\\\x8f\xc2\xf5(\xf0\xbf'
p7052
tp7053
Rp7054
sg6516
g204
(g208
S'{\x14\xaeG\xe1z\xa4?'
p7055
tp7056
Rp7057
sg6520
g204
(g208
S'fffff\xe6%\xc0'
p7058
tp7059
Rp7060
sg6524
g204
(g208
S'\x9a\x99\x99\x99\x99\x99\xd9\xbf'
p7061
tp7062
Rp7063
sg6528
g204
(g208
S'\x8f\xc2\xf5(\\\x8f;\xc0'
p7064
tp7065
Rp7066
sg6532
g204
(g208
S')\\\x8f\xc2\xf5\xa8$@'
p7067
tp7068
Rp7069
sg6536
g204
(g208
S'\x90\xc2\xf5(\\O:@'
p7070
tp7071
Rp7072
sg6540
g204
(g208
S'\x00=\n\xd7\xa3p\xdd\xbf'
p7073
tp7074
Rp7075
sa(dp7076
g6444
g204
(g208
S'{\x14\xaeG\xe1z\xa4\xbf'
p7077
tp7078
Rp7079
sg6448
g204
(g208
S')\\\x8f\xc2\xf5(\xcc\xbf'
p7080
tp7081
Rp7082
sg6452
g204
(g208
S'\x1f\x85\xebQ\xb8\x1e\xe5?'
p7083
tp7084
Rp7085
sg6456
g204
(g208
S'\x00{\x14\xaeG\xe1\xca\xbf'
p7086
tp7087
Rp7088
sg6460
g204
(g208
S'\x9a\x99\x99\x99\x99\x99\xf1?'
p7089
tp7090
Rp7091
sg6464
g204
(g208
S'{\x14\xaeG\xe1z\xa4?'
p7092
tp7093
Rp7094
sg6468
g204
(g208
S'333333\xc3?'
p7095
tp7096
Rp7097
sg6472
g204
(g208
S'\xaeG\xe1z\x14\xae<\xc0'
p7098
tp7099
Rp7100
sg6476
g204
(g208
S'\x00\x9a\x99\x99\x99\x99\xc9\xbf'
p7101
tp7102
Rp7103
sg6480
g204
(g208
S'\xd7\xa3p=\n\xd7\xd3?'
p7104
tp7105
Rp7106
sg6484
g204
(g208
S'\xa4p=\n\xd7\xa3\xf8\xbf'
p7107
tp7108
Rp7109
sg6488
g204
(g208
S'{\x14\xaeG\xe1z\xa4\xbf'
p7110
tp7111
Rp7112
sg6492
g204
(g208
S'{\x14\xaeG\xe1z\xa4?'
p7113
tp7114
Rp7115
sg6496
g204
(g208
S'\x1f\x85\xebQ\xb8\x1e\xe5\xbf'
p7116
tp7117
Rp7118
sg6500
g204
(g208
S'\xa4p=\n\xd7#(\xc0'
p7119
tp7120
Rp7121
sg6504
g204
(g208
S'\xa4p=\n\xd7\xa3\xc0\xbf'
p7122
tp7123
Rp7124
sg6508
g204
(g208
S')\\\x8f\xc2\xf5(?@'
p7125
tp7126
Rp7127
sg6512
g204
(g208
S'\xe1z\x14\xaeG\xe1\x06\xc0'
p7128
tp7129
Rp7130
sg6516
g204
(g208
S'{\x14\xaeG\xe1z\xa4?'
p7131
tp7132
Rp7133
sg6520
g204
(g208
S'\xb8\x1e\x85\xebQ\xb8%\xc0'
p7134
tp7135
Rp7136
sg6524
g204
(g208
S'{\x14\xaeG\xe1z\x12@'
p7137
tp7138
Rp7139
sg6528
g204
(g208
S'\xe1z\x14\xaeG\xe1<\xc0'
p7140
tp7141
Rp7142
sg6532
g204
(g208
S'\xb8\x1e\x85\xebQ\xb8%@'
p7143
tp7144
Rp7145
sg6536
g204
(g208
S'\xcc\xcc\xcc\xcc\xcc\xcc;@'
p7146
tp7147
Rp7148
sg6540
g204
(g208
S'\x00H\xe1z\x14\xae\xd7\xbf'
p7149
tp7150
Rp7151
sa(dp7152
g6444
g204
(g208
S'{\x14\xaeG\xe1z\xa4\xbf'
p7153
tp7154
Rp7155
sg6448
g204
(g208
S'\xa4p=\n\xd7\xa3\xc0\xbf'
p7156
tp7157
Rp7158
sg6452
g204
(g208
S'R\xb8\x1e\x85\xebQ\xf4?'
p7159
tp7160
Rp7161
sg6456
g204
(g208
S'\x00{\x14\xaeG\xe1\xca\xbf'
p7162
tp7163
Rp7164
sg6460
g204
(g208
S'\\\x8f\xc2\xf5(\\\xfb?'
p7165
tp7166
Rp7167
sg6464
g204
(g208
S'{\x14\xaeG\xe1z\xa4?'
p7168
tp7169
Rp7170
sg6468
g204
(g208
S'333333\xc3?'
p7171
tp7172
Rp7173
sg6472
g204
(g208
S'\x86\xebQ\xb8\x1e\xc5<\xc0'
p7174
tp7175
Rp7176
sg6476
g204
(g208
S'\x00\x10\xaeG\xe1z\x94\xbf'
p7177
tp7178
Rp7179
sg6480
g204
(g208
S'\xa4p=\n\xd7\xa3\xc0?'
p7180
tp7181
Rp7182
sg6484
g204
(g208
S'333333\xf7\xbf'
p7183
tp7184
Rp7185
sg6488
g204
(g208
S'\xb8\x1e\x85\xebQ\xb8\xde?'
p7186
tp7187
Rp7188
sg6492
g204
(g208
S'{\x14\xaeG\xe1z\xa4\xbf'
p7189
tp7190
Rp7191
sg6496
g204
(g208
S'\x1f\x85\xebQ\xb8\x1e\xe5\xbf'
p7192
tp7193
Rp7194
sg6500
g204
(g208
S"H\xe1z\x14\xae\xc7'\xc0"
p7195
tp7196
Rp7197
sg6504
g204
(g208
S')\\\x8f\xc2\xf5(\xcc\xbf'
p7198
tp7199
Rp7200
sg6508
g204
(g208
S')\\\x8f\xc2\xf5(?@'
p7201
tp7202
Rp7203
sg6512
g204
(g208
S'\xecQ\xb8\x1e\x85\xeb\x14\xc0'
p7204
tp7205
Rp7206
sg6516
g204
(g208
S'{\x14\xaeG\xe1z\xa4?'
p7207
tp7208
Rp7209
sg6520
g204
(g208
S'fffff\xe6%\xc0'
p7210
tp7211
Rp7212
sg6524
g204
(g208
S'\xecQ\xb8\x1e\x85\xeb\r@'
p7213
tp7214
Rp7215
sg6528
g204
(g208
S')\\\x8f\xc2\xf5h=\xc0'
p7216
tp7217
Rp7218
sg6532
g204
(g208
S'\\\x8f\xc2\xf5(\\%@'
p7219
tp7220
Rp7221
sg6536
g204
(g208
S'\xf6(\\\x8f\xc2\xb5;@'
p7222
tp7223
Rp7224
sg6540
g204
(g208
S'\x00H\xe1z\x14\xae\xd7\xbf'
p7225
tp7226
Rp7227
sas(dp7228
g1
(lp7229
I01
aI01
aI00
aI01
aI01
aI01
aI00
aI01
aI01
aI01
aI00
aI01
aI01
aI01
aI01
aI00
aI01
aI01
aI01
aI01
aI01
aI01
aI01
aI01
aI01
aI01
aI00
aI01
aI01
aI01
aI01
aI00
aI00
aI01
aI01
aI01
aI00
aI00
aI01
aI01
aI01
asg69
(lp7230
I00
aI01
aI01
aI01
aI01
aI01
aI01
aI01
aI01
aI01
aI01
aI01
aI01
aI01
aI01
aI01
asg112
(lp7231
I01
aI01
aI01
aI01
aI00
aI01
aI00
aI01
aI00
aI01
aI01
aI01
aI01
aI00
aI00
aI00
aI01
aI01
aI01
aI01
aI00
aI01
aI01
aI00
asg163
(lp7232
I00
aI00
aI00
aI00
aI00
aI00
aI00
aI00
aI00
aI00
astp7233
.