(dp0
Vl_elbow_y
p1
F0.92
sVr_hip_y
p2
F13.32
sVr_knee_y
p3
F-3.03
sVhead_y
p4
F2.4299999999999997
sVhead_z
p5
F0.44
sVr_arm_z
p6
F0.13
sVr_ankle_y
p7
F-4.53
sVr_shoulder_x
p8
F-34.4
sVr_shoulder_y
p9
F-1.25
sVr_hip_z
p10
F0.13
sVr_hip_x
p11
F-11.3
sVr_elbow_y
p12
F1.01
sVl_arm_z
p13
F-0.13
sVl_hip_x
p14
F-15.08
sVl_hip_y
p15
F4.9
sVl_hip_z
p16
F-0.31
sVabs_x
p17
F21.23
sVabs_y
p18
F4.7
sVabs_z
p19
F-0.31
sVl_ankle_y
p20
F-0.22
sVbust_y
p21
F2.59
sVbust_x
p22
F-27.65
sVl_knee_y
p23
F-3.74
sVl_shoulder_x
p24
F35.98
sVl_shoulder_y
p25
F-2.0400000000000063
s.