(dp0
Vl_elbow_y
p1
F1.01
sVr_hip_y
p2
F12.26
sVr_knee_y
p3
F-2.07
sVhead_y
p4
F2.1400000000000006
sVhead_z
p5
F-0.15
sVr_arm_z
p6
F0.13
sVr_ankle_y
p7
F-7.25
sVr_shoulder_x
p8
F-34.31
sVr_shoulder_y
p9
F-1.25
sVr_hip_z
p10
F-0.31
sVr_hip_x
p11
F0.04
sVr_elbow_y
p12
F1.01
sVl_arm_z
p13
F-0.13
sVl_hip_x
p14
F3.91
sVl_hip_y
p15
F-7.58
sVl_hip_z
p16
F0.04
sVabs_x
p17
F1.1
sVabs_y
p18
F4.62
sVabs_z
p19
F-0.22
sVl_ankle_y
p20
F9.19
sVbust_y
p21
F2.24
sVbust_x
p22
F0.13
sVl_knee_y
p23
F-3.12
sVl_shoulder_x
p24
F36.59
sVl_shoulder_y
p25
F-1.9599999999999937
s.