(dp0
S'r_hip_z'
p1
F110.55
sS'r_hip_x'
p2
F-29.93
sS'r_hip_y'
p3
F72.31
sS'l_hip_x'
p4
F25.27
sS'l_hip_y'
p5
F74.79
sS'l_hip_z'
p6
F-111.6
sS'abs_y'
p7
F37.14
sS'l_knee_y'
p8
F132.44
sS'r_knee_y'
p9
F133.58
sS'l_ankle_y'
p10
F45.14
sS'r_ankle_y'
p11
F43.56
s.