(dp0
Vl_elbow_y
p1
F0.84
sVr_hip_y
p2
F20.53
sVr_knee_y
p3
F2.07
sVhead_y
p4
F1.8500000000000014
sVhead_z
p5
F-1.03
sVr_arm_z
p6
F0.48
sVr_ankle_y
p7
F-14.73
sVr_shoulder_x
p8
F-33.34
sVr_shoulder_y
p9
F-1.5999999999999943
sVr_hip_z
p10
F-0.31
sVr_hip_x
p11
F-4.0
sVr_elbow_y
p12
F0.92
sVl_arm_z
p13
F-0.04
sVl_hip_x
p14
F-3.03
sVl_hip_y
p15
F5.96
sVl_hip_z
p16
F1.01
sVabs_x
p17
F-30.64
sVabs_y
p18
F27.65
sVabs_z
p19
F-0.48
sVl_ankle_y
p20
F4.18
sVbust_y
p21
F2.07
sVbust_x
p22
F-0.75
sVl_knee_y
p23
F-4.18
sVl_shoulder_x
p24
F36.33
sVl_shoulder_y
p25
F-2.4000000000000057
s.