(dp0
Vl_elbow_y
p1
F-42.42
sVr_hip_y
p2
F-99.3
sVr_knee_y
p3
F-2.24
sVhead_y
p4
F-22.2
sVhead_z
p5
F-0.73
sVr_arm_z
p6
F11.38
sVr_ankle_y
p7
F-42.59
sVr_shoulder_x
p8
F-4.590000000000003
sVr_shoulder_y
p9
F-188.42000000000002
sVr_hip_z
p10
F-0.04
sVr_hip_x
p11
F1.36
sVr_elbow_y
p12
F-53.41
sVl_arm_z
p13
F2.51
sVl_hip_x
p14
F4.18
sVl_hip_y
p15
F-101.38
sVl_hip_z
p16
F1.19
sVabs_x
p17
F2.95
sVabs_y
p18
F-3.56
sVabs_z
p19
F-0.31
sVl_ankle_y
p20
F-42.77
sVbust_y
p21
F4.53
sVbust_x
p22
F0.31
sVl_knee_y
p23
F-2.86
sVl_shoulder_x
p24
F-3.319999999999993
sVl_shoulder_y
p25
F-199.76
s.