(lp0
(dp1
Vl_elbow_y
p2
F0.92
sVr_hip_y
p3
F10.95
sVr_knee_y
p4
F-2.59
sVhead_y
p5
F3.0199999999999996
sVhead_z
p6
F0.44
sVr_arm_z
p7
F-4.7
sVr_ankle_y
p8
F-1.89
sVr_shoulder_x
p9
F-3.450000000000003
sVr_shoulder_y
p10
F-1.0799999999999983
sVr_hip_z
p11
F-6.02
sVr_hip_x
p12
F1.1
sVr_elbow_y
p13
F1.01
sVl_arm_z
p14
F-0.66
sVl_hip_x
p15
F8.4
sVl_hip_y
p16
F7.98
sVl_hip_z
p17
F1.54
sVabs_x
p18
F1.89
sVabs_y
p19
F5.14
sVabs_z
p20
F-5.32
sVl_ankle_y
p21
F-1.89
sVbust_y
p22
F3.21
sVbust_x
p23
F3.12
sVl_knee_y
p24
F-4.18
sVl_shoulder_x
p25
F5.560000000000002
sVl_shoulder_y
p26
F-1.6899999999999977
sa.