((Vabs_y
p0
Vabs_x
p1
Vabs_z
p2
Vbust_y
p3
Vbust_x
p4
Vhead_z
p5
Vhead_y
p6
Vl_shoulder_y
p7
Vl_shoulder_x
p8
Vl_arm_z
p9
Vl_elbow_y
p10
Vr_shoulder_y
p11
Vr_shoulder_x
p12
Vr_arm_z
p13
Vr_elbow_y
p14
Vl_hip_x
p15
Vl_hip_z
p16
Vl_hip_y
p17
Vl_knee_y
p18
Vl_ankle_y
p19
Vr_hip_x
p20
Vr_hip_z
p21
Vr_hip_y
p22
Vr_knee_y
p23
Vr_ankle_y
p24
tp25
(dp26
S'load'
p27
(lp28
(F17.1
F-0.0
F9.5
F40.2
F-3.9
F0.0
F-14.9
F-13.8
F5.1
F-0.0
F-1.6
F-10.2
F5.7
F0.8
F1.0
F-0.8
F4.5
F-12.5
F2.7
F-19.6
F18.8
F9.7
F-5.2
F3.6
F-56.4
tp29
a(F-2.3
F1.6
F2.3
F-6.3
F2.3
F0.0
F-6.3
F-3.1
F1.6
F-0.8
F-1.6
F-1.6
F2.3
F-0.0
F0.8
F1.6
F-0.8
F-6.3
F-7.0
F-9.2
F3.1
F0.8
F-1.6
F4.3
F25.9
tp30
a(F-5.5
F2.3
F2.3
F-7.0
F1.6
F0.0
F-6.3
F-1.6
F0.8
F-1.6
F-2.3
F-0.0
F3.1
F0.8
F0.8
F0.0
F0.8
F-0.3
F-2.3
F-11.3
F3.1
F0.8
F9.4
F11.8
F27.1
tp31
a(F-1.6
F3.1
F3.1
F-2.3
F4.7
F0.0
F-6.3
F-2.3
F1.6
F-0.0
F-1.6
F-2.3
F2.3
F-0.8
F0.8
F-3.1
F-0.8
F-7.5
F-3.1
F-2.0
F7.8
F-1.6
F-0.8
F6.5
F-13.2
tp32
a(F-3.1
F3.1
F2.3
F-3.9
F4.7
F0.0
F-6.3
F-2.3
F0.8
F0.8
F-1.6
F-2.3
F2.3
F0.8
F-0.0
F-3.9
F-1.6
F-7.2
F-2.3
F-1.1
F7.8
F-0.8
F-1.6
F16.1
F-9.4
tp33
a(F-3.9
F4.7
F2.3
F-3.9
F2.3
F0.0
F-6.3
F-2.3
F1.6
F-0.0
F-2.3
F-2.3
F1.6
F0.8
F-0.0
F-5.5
F5.5
F6.5
F-23.7
F-23.5
F7.0
F1.6
F-2.2
F29.2
F-30.2
tp34
a(F-7.0
F3.9
F3.1
F-10.2
F0.5
F0.8
F-5.5
F-2.3
F-0.8
F-0.0
F-1.6
F-3.1
F1.6
F-0.8
F-0.8
F-8.8
F3.3
F4.7
F-0.8
F-22.2
F7.0
F-6.3
F2.2
F37.0
F-65.8
tp35
a(F-5.5
F3.9
F4.7
F-7.0
F5.5
F0.0
F-6.3
F-2.3
F-0.0
F0.8
F-0.8
F-2.3
F1.6
F-0.8
F0.8
F-9.4
F5.5
F1.6
F-9.7
F-23.5
F6.3
F3.1
F2.1
F7.1
F-61.4
tp36
a(F-5.5
F2.3
F3.1
F-7.0
F5.5
F0.0
F-6.3
F-2.3
F-0.0
F-0.8
F-0.8
F-2.3
F1.6
F-0.8
F-0.0
F-9.4
F7.0
F0.2
F-11.0
F-37.5
F6.3
F3.1
F5.8
F-0.7
F-77.6
tp37
a(F-4.7
F3.9
F3.9
F3.1
F0.8
F0.0
F-6.3
F-2.3
F-1.6
F-0.8
F-1.6
F-2.3
F1.6
F-0.8
F0.8
F-8.6
F-3.5
F21.0
F32.3
F14.5
F9.4
F3.9
F2.1
F-14.9
F-41.4
tp38
a(F-3.9
F4.7
F3.1
F-5.5
F3.1
F0.8
F-0.0
F-3.9
F-0.0
F-1.6
F-0.8
F-2.3
F1.6
F-0.0
F-0.0
F-6.3
F5.5
F-4.2
F5.9
F-18.0
F9.4
F3.1
F3.9
F-14.1
F-39.1
tp39
a(F-3.9
F3.1
F2.3
F-5.5
F3.1
F0.0
F-6.3
F-3.9
F-0.0
F-1.6
F-1.6
F-2.3
F1.6
F0.8
F-0.0
F-7.8
F0.8
F-6.7
F3.2
F-52.6
F5.5
F1.6
F2.3
F-14.1
F-32.3
tp40
a(F-3.9
F1.6
F0.8
F-4.7
F3.1
F0.0
F-6.3
F-3.9
F-0.8
F-0.8
F-0.8
F-2.3
F1.6
F-0.8
F-0.8
F-7.0
F-1.6
F-7.0
F-6.5
F-60.2
F5.5
F-0.0
F0.8
F-14.1
F-28.9
tp41
a(F-3.1
F3.1
F0.8
F-7.0
F1.6
F0.0
F-7.0
F-3.9
F-1.6
F-0.8
F-2.3
F-3.1
F0.8
F-0.8
F-0.8
F-7.0
F-1.6
F-5.1
F-12.5
F-62.6
F5.5
F-1.6
F1.6
F-13.3
F-28.2
tp42
a(F-3.1
F3.1
F0.8
F-5.5
F2.3
F6.3
F-6.3
F-3.9
F-0.8
F0.8
F-1.6
F-3.1
F0.8
F-0.8
F-0.0
F0.0
F-10.2
F0.8
F-33.6
F-18.0
F0.0
F-0.0
F0.8
F-5.5
F-13.3
tp43
a(F-2.3
F2.3
F1.6
F-6.3
F2.3
F0.0
F-7.0
F-3.9
F-0.8
F0.8
F-0.8
F-2.3
F0.8
F0.8
F-0.0
F-0.8
F-12.5
F-4.8
F-28.4
F-23.2
F-0.8
F-0.8
F-5.2
F-6.3
F-8.6
tp44
a(F-3.9
F1.6
F0.8
F-7.0
F3.1
F0.0
F-6.3
F-2.3
F-0.8
F-0.8
F-1.6
F-1.6
F0.8
F0.8
F-0.8
F-1.6
F-8.6
F2.1
F-11.8
F-16.8
F1.6
F-1.6
F2.8
F4.7
F-1.1
tp45
a(F-5.5
F2.3
F1.6
F-5.5
F2.3
F0.0
F-6.3
F-2.3
F-0.0
F0.8
F-0.8
F-0.0
F0.8
F-0.8
F0.8
F-2.3
F-8.6
F1.6
F-6.1
F-18.5
F2.3
F-3.1
F-0.1
F7.0
F1.3
tp46
a(F-5.5
F1.6
F0.8
F-7.0
F2.3
F0.0
F-6.3
F-2.3
F0.8
F-0.8
F-2.3
F-0.0
F0.8
F-0.8
F-0.0
F-3.1
F-9.4
F-2.3
F-7.0
F-29.7
F1.6
F-1.6
F-1.7
F1.8
F-5.9
tp47
a(F-4.7
F-2.3
F-1.6
F-5.5
F0.8
F0.0
F-0.0
F-2.3
F-0.8
F-1.6
F-1.6
F-2.3
F0.8
F-0.8
F-0.8
F-3.1
F-1.0
F-11.4
F3.1
F-46.6
F1.6
F-0.2
F12.7
F-24.9
F-31.1
tp48
a(F-4.7
F-2.3
F-1.6
F-5.5
F0.8
F0.0
F-6.3
F-2.3
F-0.8
F0.8
F-1.6
F-2.3
F0.8
F-0.8
F-0.8
F-2.3
F1.6
F-8.7
F1.7
F-32.6
F1.6
F-1.6
F7.8
F-8.2
F-32.8
tp49
a(F-4.7
F-3.9
F-2.3
F-5.5
F-0.0
F0.0
F-6.3
F-2.3
F-0.8
F-0.0
F-0.8
F-2.3
F0.8
F-0.8
F-0.0
F-2.3
F3.1
F-6.5
F3.9
F-25.3
F1.6
F-0.8
F6.3
F2.5
F-23.2
tp50
a(F-4.7
F-2.3
F-2.3
F-5.5
F-2.3
F0.0
F-6.3
F-2.3
F-0.8
F0.8
F-0.8
F-1.6
F0.8
F0.8
F-0.0
F-3.9
F3.9
F-5.6
F-0.6
F-23.9
F1.6
F-0.8
F7.8
F1.7
F-32.1
tp51
a(F-5.5
F-5.5
F-3.1
F-5.5
F-1.6
F0.0
F-6.3
F-2.3
F-0.8
F-0.0
F-0.8
F-1.6
F0.8
F0.8
F-0.0
F-5.5
F3.9
F-4.0
F-10.2
F-25.8
F2.2
F1.6
F34.3
F57.4
F-12.0
tp52
a(F-7.0
F-3.9
F-4.7
F-10.9
F-2.3
F0.0
F-6.3
F-2.3
F-1.6
F-1.6
F-1.6
F-2.3
F-0.8
F0.8
F-0.0
F-10.2
F5.5
F-4.7
F-19.6
F-21.9
F5.5
F-3.9
F4.0
F57.0
F-1.9
tp53
a(F-6.3
F3.9
F0.6
F-10.9
F1.6
F0.0
F-6.3
F-2.3
F-1.6
F-0.8
F-0.8
F-2.3
F-0.8
F0.8
F-0.0
F-7.8
F3.9
F-4.7
F-14.1
F-8.1
F7.8
F-0.8
F-0.9
F52.7
F-29.1
tp54
a(F-6.3
F6.3
F3.1
F-10.2
F4.7
F0.0
F-6.3
F-2.3
F-1.6
F-0.0
F-1.6
F-1.6
F-0.8
F-0.0
F-0.0
F-8.6
F3.1
F-4.7
F-7.8
F-2.3
F7.8
F-0.8
F-0.0
F28.4
F-2.2
tp55
a(F-2.3
F3.9
F3.1
F-3.9
F5.5
F0.0
F-6.3
F-1.6
F-1.6
F-0.0
F-1.6
F-0.0
F-0.0
F-0.0
F-0.0
F-7.8
F1.6
F-4.7
F-2.3
F0.0
F7.8
F-1.6
F-1.4
F29.1
F13.7
tp56
asS'position'
p57
(lp58
(F2.15
F0.13
F1.8
F5.85
F-0.48
F0.15
F-3.1400000000000006
F-2.8400000000000034
F0.9899999999999949
F-0.04
F-0.22
F-1.7800000000000011
F1.0300000000000011
F0.22
F0.31
F-0.13
F1.45
F3.05
F5.85
F-10.42
F2.07
F1.36
F-6.99
F10.24
F-6.99
tp59
a(F-0.31
F0.31
F0.22
F-0.57
F0.22
F0.15
F-0.5
F-0.45999999999999375
F0.29000000000000625
F0.04
F-0.22
F-0.20000000000000284
F0.23999999999999488
F0.13
F0.04
F0.13
F-0.04
F5.34
F-0.75
F-6.02
F0.22
F0.13
F-6.46
F6.11
F2.15
tp60
a(F-0.66
F0.22
F0.13
F-0.66
F0.22
F0.15
F-0.5
F-0.29000000000000625
F0.20000000000000284
F-0.04
F-0.22
F-0.01999999999999602
F0.3299999999999983
F0.13
F0.13
F-0.04
F0.13
F8.15
F-0.4
F-8.66
F0.22
F0.13
F-6.46
F13.05
F-3.82
tp61
a(F-0.13
F0.48
F0.31
F-0.31
F0.48
F-0.15
F-0.5
F-0.37000000000000455
F0.29000000000000625
F-0.04
F-0.22
F-0.29000000000000625
F0.23999999999999488
F0.04
F0.04
F-0.31
F-0.13
F9.91
F-0.48
F-10.33
F0.75
F-0.04
F-8.13
F19.38
F-11.74
tp62
a(F-0.31
F0.48
F0.22
F-0.31
F0.48
F-0.15
F-0.5
F-0.37000000000000455
F0.20000000000000284
F0.04
F-0.13
F-0.29000000000000625
F0.23999999999999488
F0.13
F0.04
F-0.4
F-0.13
F12.11
F-0.4
F-12.35
F0.84
F-0.04
F-8.31
F24.31
F-15.78
tp63
a(F-0.4
F0.48
F0.22
F-0.48
F0.31
F-0.15
F-0.5
F-0.37000000000000455
F0.29000000000000625
F-0.04
F-0.22
F-0.29000000000000625
F0.15000000000000568
F0.04
F0.04
F-0.57
F0.22
F9.3
F6.64
F-16.31
F0.75
F0.13
F-5.67
F23.16
F-17.8
tp64
a(F-0.75
F0.4
F0.31
F-1.19
F-0.13
F-0.44
F-0.5
F-0.37000000000000455
F0.01999999999999602
F-0.04
F-0.13
F-0.37000000000000455
F0.15000000000000568
F0.04
F-0.04
F-1.1
F-0.04
F3.2300000000000004
F21.93
F-21.23
F0.75
F-0.92
F-2.07
F21.32
F-20.88
tp65
a(F-0.57
F0.4
F0.4
F-0.84
F0.66
F0.15
F-0.5
F-0.37000000000000455
F0.10999999999999943
F0.04
F-0.13
F-0.29000000000000625
F0.15000000000000568
F0.04
F0.04
F-1.01
F-0.31
F-2.66
F29.23
F-18.95
F0.66
F0.31
F1.19
F8.04
F-14.9
tp66
a(F-0.57
F0.4
F0.31
F-0.84
F0.57
F0.15
F-0.5
F-0.37000000000000455
F0.10999999999999943
F0.04
F-0.13
F-0.29000000000000625
F0.15000000000000568
F0.04
F-0.04
F-1.01
F-0.4
F-7.93
F38.99
F-18.86
F0.66
F0.31
F4.26
F1.71
F-13.41
tp67
a(F-0.48
F0.4
F0.31
F0.31
F0.04
F0.15
F-0.5
F-0.37000000000000455
F-0.06999999999999318
F0.04
F-0.22
F-0.29000000000000625
F0.15000000000000568
F0.04
F0.04
F-1.01
F-1.19
F-10.92
F37.49
F-16.66
F0.92
F0.4
F4.88
F-1.54
F-9.19
tp68
a(F-0.4
F0.48
F0.22
F-0.66
F0.4
F-0.15
F-0.5
F-0.5499999999999972
F0.10999999999999943
F-0.04
F-0.13
F-0.29000000000000625
F0.15000000000000568
F0.04
F-0.04
F-0.66
F-0.92
F-14.26
F21.76
F-17.1
F0.92
F0.4
F4.97
F-1.45
F-8.92
tp69
a(F-0.4
F0.31
F0.13
F-0.66
F0.4
F-0.15
F-0.5
F-0.5499999999999972
F0.10999999999999943
F-0.04
F-0.22
F-0.29000000000000625
F0.15000000000000568
F0.04
F-0.04
F-0.75
F-1.36
F-11.63
F14.9
F-12.62
F0.48
F0.22
F4.79
F-1.45
F-8.31
tp70
a(F-0.4
F0.31
F0.04
F-0.57
F0.31
F-0.15
F-0.5
F-0.5499999999999972
F0.01999999999999602
F0.04
F-0.13
F-0.29000000000000625
F0.15000000000000568
F0.04
F-0.04
F-0.66
F-1.63
F-8.73
F7.96
F-7.87
F0.48
F0.04
F4.62
F-1.45
F-7.78
tp71
a(F-0.4
F0.31
F0.04
F-0.66
F0.22
F-0.15
F-0.5
F-0.5499999999999972
F-0.06999999999999318
F0.04
F-0.22
F-0.37000000000000455
F0.06999999999999318
F0.04
F-0.04
F-0.66
F-1.71
F-5.65
F1.54
F-4.35
F0.48
F-0.04
F4.7
F-1.45
F-7.69
tp72
a(F-0.31
F0.31
F0.04
F-0.66
F0.31
F-0.15
F-0.5
F-0.5499999999999972
F0.01999999999999602
F0.04
F-0.22
F-0.37000000000000455
F0.06999999999999318
F0.04
F-0.04
F-0.04
F-1.45
F-5.82
F-0.22
F0.75
F0.04
F-0.04
F4.62
F-0.48
F-6.02
tp73
a(F-0.31
F0.22
F0.04
F-0.57
F0.31
F-0.15
F-0.5
F-0.5499999999999972
F0.01999999999999602
F0.04
F-0.13
F-0.29000000000000625
F0.06999999999999318
F0.04
F-0.04
F-0.04
F-1.45
F-6.7
F3.47
F-1.19
F-0.04
F-0.04
F5.41
F-0.57
F-6.02
tp74
a(F-0.48
F0.31
F0.04
F-0.66
F0.31
F-0.15
F-0.5
F-0.37000000000000455
F0.01999999999999602
F0.04
F-0.13
F-0.20000000000000284
F0.06999999999999318
F0.04
F-0.04
F-0.13
F-1.01
F-6.97
F12.44
F-7.08
F0.13
F-0.13
F8.75
F0.48
F-8.22
tp75
a(F-0.57
F0.22
F0.04
F-0.66
F0.31
F-0.15
F-0.5
F-0.37000000000000455
F0.10999999999999943
F0.04
F-0.13
F-0.01999999999999602
F0.06999999999999318
F0.04
F0.04
F-0.22
F-1.01
F-8.2
F18.24
F-12.0
F0.13
F-0.22
F10.24
F0.75
F-10.24
tp76
a(F-0.57
F0.13
F0.04
F-0.66
F0.31
F-0.15
F-0.5
F-0.37000000000000455
F0.20000000000000284
F-0.04
F-0.22
F-0.01999999999999602
F0.06999999999999318
F0.04
F0.04
F-0.4
F-1.01
F-8.55
F22.9
F-17.27
F0.04
F-0.13
F12.35
F0.31
F-12.88
tp77
a(F-0.48
F-0.13
F-0.22
F-0.66
F0.04
F-0.15
F-0.5
F-0.37000000000000455
F0.01999999999999602
F-0.04
F-0.13
F-0.29000000000000625
F0.06999999999999318
F0.04
F-0.04
F-0.4
F-0.22
F-6.44
F20.62
F-19.65
F0.04
F0.22
F9.8
F6.29
F-17.01
tp78
a(F-0.48
F-0.13
F-0.22
F-0.66
F0.04
F-0.15
F-0.5
F-0.37000000000000455
F0.01999999999999602
F0.04
F-0.13
F-0.29000000000000625
F0.06999999999999318
F0.04
F-0.04
F-0.31
F0.22
F-3.01
F13.93
F-14.99
F0.04
F0.48
F3.56
F18.95
F-17.8
tp79
a(F-0.48
F-0.31
F-0.22
F-0.66
F-0.04
F-0.15
F-0.7899999999999991
F-0.37000000000000455
F0.01999999999999602
F-0.04
F-0.13
F-0.29000000000000625
F0.06999999999999318
F0.04
F-0.04
F-0.31
F0.4
F0.33000000000000007
F7.78
F-10.77
F0.04
F0.84
F-2.24
F30.46
F-18.07
tp80
a(F-0.48
F-0.31
F-0.31
F-0.66
F-0.22
F-0.15
F-0.5
F-0.37000000000000455
F0.01999999999999602
F0.04
F-0.13
F-0.20000000000000284
F0.06999999999999318
F0.04
F-0.04
F-0.48
F0.48
F3.58
F0.75
F-7.52
F0.04
F1.1
F-7.69
F39.52
F-18.24
tp81
a(F-0.57
F-0.48
F-0.31
F-0.66
F-0.22
F-0.15
F-0.5
F-0.37000000000000455
F0.01999999999999602
F-0.04
F-0.13
F-0.20000000000000284
F0.06999999999999318
F0.04
F-0.04
F-0.57
F0.48
F4.2
F-1.1
F-7.43
F0.04
F1.27
F-10.07
F39.34
F-18.33
tp82
a(F-0.75
F-0.31
F-0.48
F-1.27
F-0.31
F-0.15
F-0.7899999999999991
F-0.37000000000000455
F-0.06999999999999318
F-0.04
F-0.22
F-0.29000000000000625
F-0.10999999999999943
F0.04
F-0.04
F-1.1
F0.57
F3.9299999999999997
F-2.15
F-6.99
F0.48
F1.1
F-14.46
F26.33
F-16.13
tp83
a(F-0.66
F0.57
F-0.04
F-1.27
F0.13
F-0.15
F-0.5
F-0.37000000000000455
F-0.06999999999999318
F0.04
F-0.13
F-0.29000000000000625
F-0.10999999999999943
F0.04
F-0.04
F-0.84
F0.4
F3.9299999999999997
F-1.54
F-5.67
F0.66
F1.36
F-11.12
F19.38
F-10.15
tp84
a(F-0.66
F0.66
F0.31
F-1.19
F0.57
F0.15
F-0.5
F-0.37000000000000455
F-0.06999999999999318
F-0.04
F-0.13
F-0.20000000000000284
F-0.10999999999999943
F-0.04
F-0.04
F-0.92
F0.31
F3.9299999999999997
F-0.84
F-4.79
F0.66
F1.36
F-7.87
F10.95
F-1.89
tp85
a(F-0.31
F0.57
F0.31
F-0.31
F0.57
F-0.15
F-0.5
F-0.29000000000000625
F-0.06999999999999318
F-0.04
F-0.13
F-0.01999999999999602
F-0.01999999999999602
F-0.04
F0.04
F-0.84
F0.13
F3.9299999999999997
F-0.31
F-4.53
F0.66
F1.36
F-5.76
F5.49
F2.15
tp86
asS'speed'
p87
(lp88
(F-8.208
F-0.0
F-24.624000000000002
F-51.983999999999995
F-0.0
F0.0
F55.944
F35.568
F-10.944
F-0.0
F0.0
F21.888
F-5.472
F-0.0
F-5.472
F0.0
F-16.416
F0.0
F-120.384
F90.288
F0.0
F-8.208
F5.472
F-145.00799999999998
F90.288
tp89
a(F-0.0
F-0.0
F0.0
F-0.0
F-0.0
F0.0
F-0.0
F0.0
F-0.0
F-0.0
F0.0
F-0.0
F-0.0
F-0.0
F-0.0
F0.0
F-0.0
F19.152
F0.0
F-5.472
F0.0
F-0.0
F-0.0
F32.832
F-24.624000000000002
tp90
a(F-0.0
F-0.0
F0.0
F-0.0
F-0.0
F0.0
F-0.0
F0.0
F-0.0
F-0.0
F0.0
F-0.0
F-0.0
F-0.0
F-0.0
F0.0
F-0.0
F13.680000000000001
F0.0
F-10.944
F0.0
F-0.0
F-0.0
F41.04
F-35.568
tp91
a(F-0.0
F-0.0
F0.0
F-0.0
F-0.0
F0.0
F-0.0
F0.0
F-0.0
F-0.0
F0.0
F-0.0
F-0.0
F-0.0
F-0.0
F0.0
F-0.0
F16.416
F0.0
F-10.944
F0.0
F-0.0
F-0.0
F35.568
F-24.624000000000002
tp92
a(F-0.0
F-0.0
F0.0
F-0.0
F-0.0
F0.0
F-0.0
F0.0
F-0.0
F-0.0
F0.0
F-0.0
F-0.0
F-0.0
F-0.0
F0.0
F-0.0
F21.888
F0.0
F-13.680000000000001
F0.0
F-0.0
F-0.0
F30.096
F-21.888
tp93
a(F-0.0
F-0.0
F0.0
F-0.0
F-0.0
F0.0
F-0.0
F0.0
F-0.0
F-0.0
F0.0
F-0.0
F-0.0
F-0.0
F-0.0
F0.0
F-0.0
F-21.888
F49.248000000000005
F0.0
F0.0
F-0.0
F8.208
F-30.096
F13.680000000000001
tp94
a(F-0.0
F-0.0
F0.0
F-0.0
F8.208
F2.664
F2.664
F0.0
F-0.0
F-0.0
F0.0
F-0.0
F-0.0
F-0.0
F-0.0
F5.472
F-5.472
F-19.152
F-21.888
F73.87200000000001
F0.0
F-0.0
F21.888
F-158.688
F90.288
tp95
a(F-0.0
F-0.0
F0.0
F-0.0
F-0.0
F0.0
F-0.0
F0.0
F-0.0
F-0.0
F0.0
F-0.0
F-0.0
F-0.0
F-0.0
F0.0
F-0.0
F-19.152
F51.983999999999995
F0.0
F0.0
F-0.0
F13.680000000000001
F-24.624000000000002
F10.944
tp96
a(F-0.0
F-0.0
F0.0
F-0.0
F-0.0
F0.0
F-0.0
F0.0
F-0.0
F-0.0
F0.0
F-0.0
F-0.0
F-0.0
F-0.0
F0.0
F-0.0
F-21.888
F46.512
F0.0
F0.0
F-0.0
F16.416
F-24.624000000000002
F5.472
tp97
a(F-0.0
F-0.0
F0.0
F-0.0
F-0.0
F0.0
F-0.0
F0.0
F-0.0
F-0.0
F0.0
F-0.0
F-0.0
F-0.0
F-0.0
F0.0
F-10.944
F-38.304
F-93.024
F-32.832
F0.0
F-0.0
F-5.472
F-0.0
F-0.0
tp98
a(F-0.0
F-0.0
F0.0
F-0.0
F-0.0
F2.664
F-0.0
F0.0
F-0.0
F-0.0
F0.0
F-0.0
F-0.0
F-0.0
F-0.0
F0.0
F-0.0
F13.680000000000001
F-32.832
F21.888
F0.0
F-0.0
F-0.0
F-0.0
F-0.0
tp99
a(F-0.0
F-0.0
F0.0
F-0.0
F-0.0
F0.0
F-0.0
F0.0
F-0.0
F-0.0
F0.0
F-0.0
F-0.0
F-0.0
F-0.0
F0.0
F-0.0
F16.416
F-46.512
F27.360000000000003
F0.0
F-0.0
F-0.0
F-0.0
F5.472
tp100
a(F-0.0
F-0.0
F0.0
F-0.0
F-0.0
F0.0
F-0.0
F0.0
F-0.0
F-0.0
F0.0
F-0.0
F-0.0
F-0.0
F-0.0
F0.0
F-0.0
F19.152
F-38.304
F21.888
F0.0
F-0.0
F-0.0
F-0.0
F-0.0
tp101
a(F-0.0
F-0.0
F0.0
F-0.0
F-0.0
F0.0
F-2.664
F0.0
F-0.0
F-0.0
F0.0
F-0.0
F-0.0
F-0.0
F-0.0
F0.0
F-0.0
F24.624000000000002
F-43.776
F21.888
F0.0
F-0.0
F-0.0
F-0.0
F-0.0
tp102
a(F-0.0
F-0.0
F0.0
F-0.0
F-0.0
F0.0
F-0.0
F0.0
F-0.0
F-0.0
F0.0
F-0.0
F-0.0
F-0.0
F-0.0
F0.0
F-0.0
F0.0
F0.0
F0.0
F0.0
F-0.0
F-0.0
F-0.0
F-0.0
tp103
a(F-0.0
F-0.0
F0.0
F-0.0
F-0.0
F0.0
F-2.664
F0.0
F-0.0
F-0.0
F0.0
F-0.0
F-0.0
F-0.0
F-0.0
F0.0
F-0.0
F-8.208
F51.983999999999995
F-30.096
F0.0
F-0.0
F16.416
F-0.0
F-0.0
tp104
a(F-0.0
F-0.0
F0.0
F-0.0
F-0.0
F0.0
F-0.0
F0.0
F-0.0
F-0.0
F0.0
F-0.0
F-0.0
F-0.0
F-0.0
F0.0
F-0.0
F-5.472
F46.512
F-32.832
F0.0
F-0.0
F13.680000000000001
F-0.0
F-13.680000000000001
tp105
a(F-0.0
F-0.0
F0.0
F-0.0
F-0.0
F0.0
F-0.0
F0.0
F-0.0
F-0.0
F0.0
F-0.0
F-0.0
F-0.0
F-0.0
F0.0
F-0.0
F0.0
F38.304
F-30.096
F0.0
F-0.0
F10.944
F-0.0
F-13.680000000000001
tp106
a(F-0.0
F-0.0
F0.0
F-0.0
F-0.0
F0.0
F-0.0
F0.0
F-0.0
F-0.0
F0.0
F-0.0
F-0.0
F-0.0
F-0.0
F0.0
F-0.0
F0.0
F21.888
F-21.888
F0.0
F-0.0
F10.944
F-5.472
F-10.944
tp107
a(F-0.0
F-0.0
F0.0
F-0.0
F-0.0
F0.0
F-0.0
F0.0
F-0.0
F-0.0
F0.0
F-0.0
F-0.0
F-0.0
F-0.0
F0.0
F5.472
F5.472
F-21.888
F13.680000000000001
F0.0
F5.472
F-21.888
F41.04
F-5.472
tp108
a(F-0.0
F-0.0
F0.0
F-0.0
F-0.0
F0.0
F-0.0
F0.0
F-0.0
F-0.0
F0.0
F-0.0
F-0.0
F-0.0
F-0.0
F0.0
F-0.0
F10.944
F-24.624000000000002
F16.416
F0.0
F-0.0
F-19.152
F54.720000000000006
F-0.0
tp109
a(F-0.0
F-0.0
F0.0
F-0.0
F-0.0
F0.0
F-0.0
F0.0
F-0.0
F-0.0
F0.0
F-0.0
F-0.0
F-0.0
F-0.0
F0.0
F-0.0
F13.680000000000001
F-21.888
F8.208
F0.0
F-0.0
F-19.152
F60.192
F-8.208
tp110
a(F-0.0
F-0.0
F0.0
F-0.0
F-0.0
F0.0
F-0.0
F0.0
F-0.0
F-0.0
F0.0
F-0.0
F-0.0
F-0.0
F-0.0
F0.0
F-0.0
F10.944
F-27.360000000000003
F10.944
F0.0
F-0.0
F-19.152
F41.04
F-0.0
tp111
a(F-0.0
F-0.0
F0.0
F-0.0
F-0.0
F0.0
F-0.0
F0.0
F-0.0
F-0.0
F0.0
F-0.0
F-0.0
F-0.0
F-0.0
F0.0
F-0.0
F-8.208
F0.0
F0.0
F5.472
F-0.0
F-38.304
F-73.87200000000001
F-13.680000000000001
tp112
a(F-0.0
F-0.0
F0.0
F-0.0
F-0.0
F0.0
F-0.0
F0.0
F-0.0
F-0.0
F0.0
F-0.0
F-0.0
F-0.0
F-0.0
F0.0
F-0.0
F0.0
F0.0
F0.0
F0.0
F-0.0
F8.208
F-19.152
F30.096
tp113
a(F-0.0
F-0.0
F5.472
F-0.0
F-0.0
F0.0
F-0.0
F0.0
F-0.0
F-0.0
F0.0
F-0.0
F-0.0
F-0.0
F-0.0
F0.0
F-0.0
F0.0
F0.0
F8.208
F0.0
F-0.0
F10.944
F-30.096
F27.360000000000003
tp114
a(F-0.0
F-0.0
F0.0
F-0.0
F-0.0
F0.0
F-0.0
F0.0
F-0.0
F-0.0
F0.0
F-0.0
F-0.0
F-0.0
F-0.0
F0.0
F-0.0
F0.0
F0.0
F0.0
F0.0
F-0.0
F19.152
F-51.983999999999995
F41.04
tp115
a(F-0.0
F-0.0
F0.0
F-0.0
F-0.0
F0.0
F-0.0
F0.0
F-0.0
F-0.0
F0.0
F-0.0
F-0.0
F-0.0
F-0.0
F0.0
F-0.0
F0.0
F0.0
F0.0
F0.0
F-0.0
F27.360000000000003
F-71.136
F32.832
tp116
asS'voltage'
p117
(lp118
(F10.8
F10.200000000000001
F10.700000000000001
F10.700000000000001
F11.0
F11.0
F11.0
F10.600000000000001
F10.600000000000001
F10.4
F10.8
F11.0
F10.4
F10.700000000000001
F10.700000000000001
F11.3
F11.4
F11.5
F11.3
F11.100000000000001
F11.5
F11.3
F11.200000000000001
F11.3
F11.4
tp119
a(F11.5
F11.200000000000001
F11.4
F11.4
F11.600000000000001
F11.100000000000001
F11.3
F11.200000000000001
F11.100000000000001
F11.0
F11.3
F11.5
F11.0
F11.200000000000001
F11.3
F11.3
F11.4
F11.4
F11.3
F11.100000000000001
F11.600000000000001
F11.4
F11.200000000000001
F11.3
F11.4
tp120
a(F11.5
F11.100000000000001
F11.4
F11.3
F11.5
F11.100000000000001
F11.3
F11.100000000000001
F11.100000000000001
F10.9
F11.3
F11.4
F10.9
F11.100000000000001
F11.200000000000001
F11.3
F11.4
F11.4
F11.3
F11.100000000000001
F11.5
F11.4
F11.200000000000001
F11.3
F11.4
tp121
a(F11.5
F11.100000000000001
F11.3
F11.3
F11.5
F11.100000000000001
F11.3
F11.100000000000001
F11.100000000000001
F11.0
F11.3
F11.4
F10.9
F11.100000000000001
F11.200000000000001
F11.3
F11.4
F11.4
F11.4
F11.100000000000001
F11.600000000000001
F11.4
F11.200000000000001
F11.3
F11.4
tp122
a(F11.5
F11.200000000000001
F11.4
F11.3
F11.600000000000001
F11.100000000000001
F11.3
F11.100000000000001
F11.100000000000001
F11.0
F11.3
F11.5
F10.9
F11.200000000000001
F11.200000000000001
F11.3
F11.4
F11.5
F11.3
F11.200000000000001
F11.600000000000001
F11.4
F11.200000000000001
F11.3
F11.4
tp123
a(F11.4
F11.100000000000001
F11.3
F11.200000000000001
F11.5
F11.100000000000001
F11.4
F11.100000000000001
F11.100000000000001
F11.0
F11.3
F11.5
F10.9
F11.200000000000001
F11.200000000000001
F11.3
F11.3
F11.3
F11.3
F11.100000000000001
F11.5
F11.3
F11.200000000000001
F11.200000000000001
F11.3
tp124
a(F11.4
F11.100000000000001
F11.3
F11.3
F11.5
F11.100000000000001
F11.3
F11.100000000000001
F11.100000000000001
F10.9
F11.3
F11.4
F10.9
F11.100000000000001
F11.200000000000001
F11.0
F11.0
F11.0
F10.8
F10.700000000000001
F11.200000000000001
F11.0
F10.8
F10.8
F10.9
tp125
a(F11.3
F11.0
F11.200000000000001
F11.200000000000001
F11.5
F11.100000000000001
F11.3
F11.100000000000001
F11.0
F10.9
F11.200000000000001
F11.4
F10.9
F11.100000000000001
F11.200000000000001
F11.3
F11.4
F11.4
F11.3
F11.100000000000001
F11.600000000000001
F11.3
F11.100000000000001
F11.100000000000001
F11.3
tp126
a(F11.3
F11.0
F11.200000000000001
F11.200000000000001
F11.5
F11.100000000000001
F11.3
F11.0
F11.0
F10.9
F11.200000000000001
F11.4
F10.9
F11.100000000000001
F11.200000000000001
F11.200000000000001
F11.200000000000001
F11.100000000000001
F11.100000000000001
F10.9
F11.4
F11.200000000000001
F10.8
F10.9
F11.0
tp127
a(F11.5
F11.200000000000001
F11.3
F11.3
F11.5
F11.100000000000001
F11.4
F11.100000000000001
F11.100000000000001
F11.0
F11.3
F11.5
F10.9
F11.200000000000001
F11.200000000000001
F11.4
F11.5
F11.5
F11.4
F11.100000000000001
F11.5
F11.4
F11.200000000000001
F11.200000000000001
F11.3
tp128
a(F11.5
F11.100000000000001
F11.3
F11.3
F11.600000000000001
F11.100000000000001
F11.4
F11.100000000000001
F11.100000000000001
F11.0
F11.3
F11.4
F11.0
F11.200000000000001
F11.3
F11.4
F11.5
F11.5
F11.4
F11.200000000000001
F11.600000000000001
F11.4
F11.200000000000001
F11.3
F11.3
tp129
a(F11.4
F11.100000000000001
F11.3
F11.3
F11.5
F11.0
F11.4
F11.100000000000001
F11.100000000000001
F11.0
F11.3
F11.5
F10.9
F11.200000000000001
F11.3
F11.3
F11.4
F11.4
F11.200000000000001
F11.100000000000001
F11.600000000000001
F11.3
F11.200000000000001
F11.200000000000001
F11.3
tp130
a(F11.5
F11.100000000000001
F11.3
F11.3
F11.5
F11.100000000000001
F11.3
F11.100000000000001
F11.100000000000001
F11.0
F11.3
F11.5
F11.0
F11.200000000000001
F11.200000000000001
F11.4
F11.4
F11.4
F11.3
F11.100000000000001
F11.600000000000001
F11.4
F11.200000000000001
F11.3
F11.4
tp131
a(F11.4
F11.100000000000001
F11.3
F11.200000000000001
F11.5
F11.100000000000001
F11.3
F11.100000000000001
F11.0
F11.0
F11.3
F11.4
F10.9
F11.100000000000001
F11.200000000000001
F11.3
F11.4
F11.4
F11.200000000000001
F11.0
F11.5
F11.3
F11.200000000000001
F11.3
F11.3
tp132
a(F11.5
F11.200000000000001
F11.4
F11.3
F11.600000000000001
F11.100000000000001
F11.4
F11.200000000000001
F11.200000000000001
F11.100000000000001
F11.4
F11.5
F11.0
F11.200000000000001
F11.3
F11.4
F11.5
F11.5
F11.3
F11.100000000000001
F11.700000000000001
F11.5
F11.3
F11.4
F11.5
tp133
a(F11.5
F11.200000000000001
F11.4
F11.3
F11.600000000000001
F11.100000000000001
F11.3
F11.100000000000001
F11.100000000000001
F11.0
F11.4
F11.5
F11.0
F11.200000000000001
F11.200000000000001
F11.4
F11.5
F11.3
F11.3
F11.100000000000001
F11.600000000000001
F11.4
F11.3
F11.3
F11.4
tp134
a(F11.5
F11.200000000000001
F11.4
F11.3
F11.600000000000001
F11.100000000000001
F11.3
F11.100000000000001
F11.100000000000001
F11.0
F11.4
F11.5
F11.0
F11.200000000000001
F11.200000000000001
F11.4
F11.5
F11.3
F11.3
F11.100000000000001
F11.600000000000001
F11.4
F11.3
F11.3
F11.4
tp135
a(F11.5
F11.200000000000001
F11.4
F11.3
F11.600000000000001
F11.100000000000001
F11.3
F11.100000000000001
F11.100000000000001
F11.0
F11.4
F11.5
F11.0
F11.200000000000001
F11.200000000000001
F11.4
F11.5
F11.3
F11.3
F11.100000000000001
F11.600000000000001
F11.4
F11.3
F11.3
F11.4
tp136
a(F11.5
F11.200000000000001
F11.3
F11.3
F11.600000000000001
F11.100000000000001
F11.4
F11.200000000000001
F11.200000000000001
F11.100000000000001
F11.4
F11.5
F11.0
F11.200000000000001
F11.3
F11.4
F11.5
F11.5
F11.4
F11.200000000000001
F11.700000000000001
F11.5
F11.3
F11.4
F11.5
tp137
a(F11.5
F11.100000000000001
F11.4
F11.3
F11.600000000000001
F11.100000000000001
F11.3
F11.100000000000001
F11.100000000000001
F11.100000000000001
F11.4
F11.5
F11.0
F11.200000000000001
F11.3
F11.4
F11.5
F11.4
F11.3
F11.100000000000001
F11.600000000000001
F11.4
F11.3
F11.3
F11.4
tp138
a(F11.4
F11.100000000000001
F11.3
F11.200000000000001
F11.5
F11.100000000000001
F11.3
F11.100000000000001
F11.100000000000001
F11.0
F11.3
F11.4
F10.9
F11.100000000000001
F11.200000000000001
F11.3
F11.3
F11.200000000000001
F11.200000000000001
F11.0
F11.5
F11.3
F11.100000000000001
F11.200000000000001
F11.3
tp139
a(F11.4
F11.100000000000001
F11.3
F11.200000000000001
F11.5
F11.100000000000001
F11.3
F11.100000000000001
F11.100000000000001
F11.0
F11.3
F11.4
F10.9
F11.100000000000001
F11.200000000000001
F11.3
F11.3
F11.200000000000001
F11.200000000000001
F11.0
F11.5
F11.3
F11.100000000000001
F11.200000000000001
F11.3
tp140
a(F11.5
F11.100000000000001
F11.3
F11.3
F11.5
F11.100000000000001
F11.3
F11.100000000000001
F11.100000000000001
F11.0
F11.3
F11.4
F10.9
F11.200000000000001
F11.3
F11.3
F11.3
F11.200000000000001
F11.200000000000001
F11.0
F11.5
F11.3
F11.100000000000001
F11.200000000000001
F11.3
tp141
a(F11.5
F11.0
F11.4
F11.3
F11.5
F11.100000000000001
F11.4
F11.100000000000001
F11.200000000000001
F11.0
F11.3
F11.5
F11.0
F11.200000000000001
F11.3
F11.4
F11.4
F11.5
F11.4
F11.200000000000001
F11.600000000000001
F11.4
F11.3
F11.3
F11.4
tp142
a(F11.5
F11.100000000000001
F11.3
F11.200000000000001
F11.5
F11.100000000000001
F11.3
F11.100000000000001
F11.100000000000001
F11.0
F11.3
F11.5
F10.9
F11.200000000000001
F11.200000000000001
F11.4
F11.4
F11.4
F11.3
F11.100000000000001
F11.600000000000001
F11.4
F11.100000000000001
F11.200000000000001
F11.4
tp143
a(F11.5
F11.100000000000001
F11.3
F11.200000000000001
F11.5
F11.100000000000001
F11.3
F11.100000000000001
F11.100000000000001
F11.0
F11.3
F11.5
F10.9
F11.200000000000001
F11.200000000000001
F11.4
F11.4
F11.4
F11.3
F11.100000000000001
F11.600000000000001
F11.4
F11.100000000000001
F11.200000000000001
F11.4
tp144
a(F11.4
F11.0
F11.100000000000001
F11.200000000000001
F11.4
F11.100000000000001
F11.3
F11.0
F11.0
F10.9
F11.200000000000001
F11.4
F10.8
F11.100000000000001
F11.100000000000001
F11.200000000000001
F11.3
F11.4
F11.200000000000001
F11.0
F11.5
F11.200000000000001
F11.100000000000001
F11.100000000000001
F11.100000000000001
tp145
a(F11.4
F11.0
F11.100000000000001
F11.200000000000001
F11.4
F11.100000000000001
F11.3
F11.0
F11.0
F10.9
F11.200000000000001
F11.4
F10.8
F11.100000000000001
F11.100000000000001
F11.200000000000001
F11.3
F11.4
F11.200000000000001
F11.0
F11.5
F11.200000000000001
F11.100000000000001
F11.100000000000001
F11.100000000000001
tp146
asS'temperature'
p147
(lp148
(F32.0
F32.0
F31.0
F32.0
F32.0
F35.0
F36.0
F31.0
F31.0
F30.0
F29.0
F31.0
F31.0
F30.0
F31.0
F29.0
F30.0
F29.0
F29.0
F30.0
F32.0
F30.0
F29.0
F29.0
F30.0
tp149
a(F32.0
F32.0
F31.0
F33.0
F32.0
F36.0
F41.0
F31.0
F31.0
F31.0
F30.0
F32.0
F31.0
F30.0
F31.0
F31.0
F31.0
F29.0
F29.0
F30.0
F32.0
F31.0
F30.0
F30.0
F31.0
tp150
a(F32.0
F32.0
F31.0
F33.0
F32.0
F36.0
F41.0
F31.0
F31.0
F30.0
F30.0
F32.0
F31.0
F30.0
F31.0
F31.0
F31.0
F29.0
F29.0
F31.0
F32.0
F31.0
F30.0
F30.0
F31.0
tp151
a(F32.0
F32.0
F32.0
F33.0
F32.0
F36.0
F42.0
F32.0
F31.0
F31.0
F30.0
F32.0
F32.0
F30.0
F31.0
F32.0
F31.0
F29.0
F29.0
F31.0
F32.0
F31.0
F30.0
F30.0
F31.0
tp152
a(F32.0
F32.0
F32.0
F33.0
F32.0
F36.0
F42.0
F32.0
F32.0
F31.0
F32.0
F32.0
F32.0
F30.0
F31.0
F32.0
F31.0
F29.0
F29.0
F31.0
F32.0
F31.0
F30.0
F30.0
F32.0
tp153
a(F32.0
F32.0
F32.0
F33.0
F33.0
F36.0
F43.0
F32.0
F32.0
F31.0
F30.0
F32.0
F32.0
F31.0
F31.0
F32.0
F31.0
F30.0
F30.0
F31.0
F32.0
F31.0
F30.0
F30.0
F32.0
tp154
a(F32.0
F32.0
F34.0
F33.0
F33.0
F36.0
F44.0
F29.0
F32.0
F31.0
F30.0
F32.0
F32.0
F31.0
F31.0
F34.0
F31.0
F30.0
F30.0
F31.0
F32.0
F31.0
F30.0
F30.0
F32.0
tp155
a(F32.0
F32.0
F32.0
F33.0
F33.0
F36.0
F44.0
F32.0
F32.0
F31.0
F30.0
F32.0
F32.0
F31.0
F31.0
F32.0
F32.0
F30.0
F30.0
F31.0
F32.0
F31.0
F30.0
F30.0
F32.0
tp156
a(F32.0
F32.0
F32.0
F33.0
F33.0
F36.0
F44.0
F32.0
F32.0
F31.0
F30.0
F32.0
F32.0
F31.0
F31.0
F32.0
F31.0
F30.0
F30.0
F31.0
F32.0
F31.0
F31.0
F30.0
F32.0
tp157
a(F32.0
F32.0
F32.0
F33.0
F33.0
F36.0
F44.0
F32.0
F32.0
F31.0
F30.0
F32.0
F32.0
F31.0
F32.0
F32.0
F31.0
F30.0
F30.0
F32.0
F33.0
F31.0
F31.0
F31.0
F32.0
tp158
a(F32.0
F32.0
F32.0
F34.0
F33.0
F36.0
F45.0
F32.0
F32.0
F31.0
F31.0
F32.0
F32.0
F31.0
F32.0
F32.0
F32.0
F30.0
F30.0
F32.0
F33.0
F32.0
F31.0
F31.0
F33.0
tp159
a(F32.0
F32.0
F32.0
F34.0
F33.0
F36.0
F45.0
F32.0
F32.0
F31.0
F31.0
F32.0
F32.0
F31.0
F32.0
F32.0
F32.0
F30.0
F30.0
F32.0
F33.0
F32.0
F31.0
F31.0
F33.0
tp160
a(F32.0
F32.0
F32.0
F32.0
F33.0
F36.0
F45.0
F32.0
F32.0
F31.0
F31.0
F32.0
F32.0
F31.0
F32.0
F32.0
F32.0
F31.0
F30.0
F32.0
F33.0
F32.0
F31.0
F31.0
F33.0
tp161
a(F32.0
F32.0
F32.0
F34.0
F33.0
F36.0
F45.0
F32.0
F32.0
F31.0
F29.0
F30.0
F32.0
F31.0
F32.0
F32.0
F32.0
F30.0
F30.0
F32.0
F33.0
F32.0
F31.0
F31.0
F33.0
tp162
a(F32.0
F32.0
F32.0
F34.0
F33.0
F36.0
F46.0
F32.0
F32.0
F31.0
F31.0
F32.0
F32.0
F31.0
F32.0
F32.0
F32.0
F30.0
F30.0
F32.0
F33.0
F32.0
F31.0
F31.0
F34.0
tp163
a(F32.0
F33.0
F32.0
F34.0
F33.0
F36.0
F46.0
F32.0
F32.0
F32.0
F31.0
F32.0
F32.0
F31.0
F32.0
F32.0
F32.0
F30.0
F30.0
F32.0
F33.0
F32.0
F31.0
F31.0
F34.0
tp164
a(F32.0
F33.0
F32.0
F34.0
F33.0
F36.0
F46.0
F32.0
F32.0
F32.0
F31.0
F32.0
F32.0
F31.0
F32.0
F32.0
F32.0
F30.0
F30.0
F32.0
F33.0
F32.0
F31.0
F31.0
F34.0
tp165
a(F32.0
F33.0
F32.0
F34.0
F33.0
F36.0
F46.0
F32.0
F32.0
F32.0
F31.0
F32.0
F32.0
F31.0
F32.0
F32.0
F32.0
F30.0
F30.0
F32.0
F33.0
F32.0
F31.0
F31.0
F34.0
tp166
a(F32.0
F33.0
F32.0
F34.0
F33.0
F36.0
F46.0
F32.0
F35.0
F32.0
F31.0
F32.0
F32.0
F33.0
F32.0
F32.0
F32.0
F30.0
F30.0
F32.0
F33.0
F32.0
F31.0
F31.0
F34.0
tp167
a(F32.0
F33.0
F32.0
F34.0
F33.0
F36.0
F46.0
F32.0
F34.0
F32.0
F31.0
F32.0
F32.0
F31.0
F32.0
F32.0
F32.0
F30.0
F31.0
F32.0
F33.0
F32.0
F31.0
F31.0
F34.0
tp168
a(F32.0
F33.0
F32.0
F34.0
F33.0
F36.0
F46.0
F32.0
F32.0
F32.0
F31.0
F32.0
F32.0
F31.0
F32.0
F32.0
F32.0
F30.0
F31.0
F32.0
F33.0
F32.0
F31.0
F31.0
F34.0
tp169
a(F32.0
F33.0
F32.0
F34.0
F33.0
F36.0
F46.0
F32.0
F32.0
F32.0
F31.0
F32.0
F32.0
F31.0
F32.0
F32.0
F32.0
F30.0
F31.0
F32.0
F33.0
F32.0
F31.0
F31.0
F34.0
tp170
a(F32.0
F33.0
F32.0
F34.0
F33.0
F36.0
F46.0
F32.0
F32.0
F32.0
F31.0
F32.0
F32.0
F31.0
F32.0
F32.0
F32.0
F30.0
F31.0
F32.0
F33.0
F32.0
F31.0
F31.0
F34.0
tp171
a(F33.0
F33.0
F32.0
F34.0
F33.0
F36.0
F47.0
F32.0
F32.0
F32.0
F31.0
F32.0
F32.0
F31.0
F32.0
F32.0
F32.0
F30.0
F31.0
F33.0
F33.0
F32.0
F31.0
F31.0
F34.0
tp172
a(F33.0
F33.0
F32.0
F34.0
F33.0
F36.0
F47.0
F32.0
F32.0
F30.0
F31.0
F32.0
F32.0
F33.0
F32.0
F32.0
F32.0
F30.0
F31.0
F33.0
F33.0
F32.0
F31.0
F31.0
F34.0
tp173
a(F33.0
F33.0
F32.0
F34.0
F33.0
F36.0
F47.0
F32.0
F32.0
F30.0
F31.0
F32.0
F32.0
F33.0
F32.0
F32.0
F32.0
F30.0
F31.0
F33.0
F33.0
F32.0
F31.0
F31.0
F34.0
tp174
a(F32.0
F33.0
F32.0
F34.0
F33.0
F36.0
F47.0
F32.0
F32.0
F32.0
F31.0
F32.0
F32.0
F31.0
F32.0
F32.0
F32.0
F30.0
F31.0
F33.0
F33.0
F32.0
F31.0
F31.0
F34.0
tp175
a(F32.0
F33.0
F32.0
F34.0
F33.0
F36.0
F47.0
F32.0
F32.0
F32.0
F31.0
F32.0
F32.0
F31.0
F32.0
F32.0
F32.0
F30.0
F31.0
F33.0
F33.0
F32.0
F31.0
F31.0
F34.0
tp176
as(lp177
F0.35102295875549316
aF0.13076305389404297
aF0.1709120273590088
aF0.15135598182678223
aF0.1183929443359375
aF0.25607991218566895
aF0.25247883796691895
aF0.24801898002624512
aF0.24425601959228516
aF0.08274602890014648
aF0.1949319839477539
aF0.1857919692993164
aF0.15566611289978027
aF0.13648700714111328
aF0.6328489780426025
aF0.13059711456298828
aF0.1713409423828125
aF0.15157103538513184
aF0.11826014518737793
aF0.25697803497314453
aF0.2520759105682373
aF0.2479720115661621
aF0.2439558506011963
aF0.08299589157104492
aF0.19517803192138672
aF0.1860339641571045
aF0.15552997589111328
aF0.1367039680480957
atp178
.