((Vabs_y
p0
Vabs_x
p1
Vabs_z
p2
Vbust_y
p3
Vbust_x
p4
Vhead_z
p5
Vhead_y
p6
Vl_shoulder_y
p7
Vl_shoulder_x
p8
Vl_arm_z
p9
Vl_elbow_y
p10
Vr_shoulder_y
p11
Vr_shoulder_x
p12
Vr_arm_z
p13
Vr_elbow_y
p14
Vl_hip_x
p15
Vl_hip_z
p16
Vl_hip_y
p17
Vl_knee_y
p18
Vl_ankle_y
p19
Vr_hip_x
p20
Vr_hip_z
p21
Vr_hip_y
p22
Vr_knee_y
p23
Vr_ankle_y
p24
tp25
(dp26
S'load'
p27
(lp28
(F6.7
F9.4
F6.3
F26.4
F-4.3
F0.8
F-11.7
F-8.1
F2.7
F0.8
F0.0
F-7.7
F4.1
F-0.8
F-1.0
F0.0
F-3.9
F-3.2
F3.3
F-13.7
F19.3
F9.8
F5.5
F22.5
F-48.0
tp29
a(F-1.6
F1.6
F1.6
F-6.3
F2.3
F0.0
F-6.3
F-1.6
F1.6
F-0.0
F-1.6
F-0.0
F1.6
F-0.0
F-0.0
F-3.9
F2.3
F-6.3
F-10.9
F-19.2
F5.5
F-0.0
F-1.6
F1.7
F16.6
tp30
a(F-2.3
F3.1
F3.1
F-6.3
F0.8
F0.0
F-6.3
F-0.8
F1.6
F-0.0
F-1.6
F1.6
F1.6
F-0.0
F-0.8
F-3.9
F1.6
F2.3
F-9.4
F-17.5
F6.3
F-1.6
F3.6
F9.8
F17.7
tp31
a(F-4.7
F1.6
F1.6
F-5.5
F2.3
F0.0
F-6.3
F-0.8
F1.6
F-0.0
F-0.8
F1.6
F1.6
F-0.8
F-0.8
F-5.5
F2.3
F2.6
F-8.6
F-12.7
F5.5
F-2.3
F4.7
F10.3
F15.9
tp32
a(F-4.7
F1.6
F1.6
F-7.0
F2.3
F0.0
F-6.3
F-1.6
F1.6
F0.8
F-1.6
F1.6
F1.6
F-0.0
F-0.8
F-4.7
F1.6
F0.6
F-3.9
F-11.0
F5.5
F-1.6
F3.1
F20.3
F8.6
tp33
a(F-4.7
F4.7
F2.3
F-5.5
F3.9
F0.8
F-6.3
F-2.3
F1.6
F0.8
F-1.6
F-2.3
F1.6
F0.8
F-1.6
F-4.7
F3.1
F8.8
F-21.2
F-21.9
F5.5
F-3.1
F-3.2
F25.2
F-31.7
tp34
a(F-5.5
F3.9
F2.3
F-5.5
F3.9
F0.0
F-6.3
F-2.3
F1.6
F1.6
F-2.3
F-1.6
F1.6
F-0.8
F-0.8
F-5.5
F4.7
F1.0
F-8.0
F-23.5
F4.7
F-3.1
F0.1
F10.3
F-30.7
tp35
a(F-4.7
F4.7
F3.1
F-5.5
F3.9
F0.0
F-6.3
F-1.6
F1.6
F0.8
F-0.8
F-1.6
F1.6
F-0.8
F-0.0
F-5.5
F5.5
F-1.6
F-1.5
F-21.1
F5.5
F-2.3
F1.5
F3.2
F-40.7
tp36
a(F-5.5
F3.1
F2.3
F-5.5
F4.7
F0.0
F-6.3
F-2.3
F1.6
F-0.8
F-1.6
F-1.6
F1.6
F-0.8
F-0.0
F-5.5
F3.1
F3.9
F-7.1
F-20.3
F6.3
F-2.3
F1.9
F-4.3
F-54.0
tp37
a(F-5.5
F4.7
F3.1
F-4.7
F3.1
F0.0
F-6.3
F-2.3
F-0.0
F-0.8
F-0.8
F-2.3
F1.6
F-0.0
F-0.8
F-4.7
F-5.0
F23.4
F45.0
F2.3
F6.3
F2.3
F3.1
F-9.4
F-54.0
tp38
a(F-6.3
F4.7
F4.7
F-5.5
F3.9
F0.0
F-6.3
F-3.1
F0.8
F-0.8
F-1.6
F-3.9
F1.6
F0.8
F-1.6
F-7.0
F4.7
F-5.6
F6.4
F-18.7
F8.6
F-0.8
F5.5
F-14.9
F-40.7
tp39
a(F-6.3
F3.9
F3.9
F-5.5
F3.9
F0.0
F-6.3
F-3.1
F1.6
F-0.8
F-1.6
F-3.1
F1.6
F1.6
F-1.6
F-7.8
F1.6
F-3.9
F3.4
F-49.6
F4.7
F-1.6
F3.9
F-14.9
F-33.1
tp40
a(F-5.5
F-1.6
F-1.6
F-5.5
F0.8
F0.0
F-6.3
F-3.1
F-1.4
F-0.8
F-1.6
F-3.1
F1.6
F0.8
F-1.6
F-7.0
F0.8
F-3.9
F-6.7
F-53.5
F4.7
F-1.6
F1.6
F-14.9
F-28.2
tp41
a(F-4.7
F0.8
F-2.3
F-7.0
F-1.6
F0.0
F-6.3
F-3.1
F-0.0
F-0.8
F-2.3
F-3.1
F0.8
F-0.0
F-1.6
F-7.0
F-0.8
F-7.6
F-8.3
F-56.6
F4.7
F-2.3
F1.6
F-13.3
F-25.8
tp42
a(F-5.5
F2.3
F-1.6
F-5.5
F1.6
F0.0
F-6.3
F-3.1
F-1.6
F0.8
F-1.6
F-2.3
F0.8
F-0.8
F-0.8
F-4.7
F-14.1
F3.9
F-36.8
F-40.7
F3.9
F-2.3
F1.6
F-14.1
F-21.9
tp43
a(F-3.1
F2.3
F-1.6
F-7.0
F1.6
F0.0
F-6.3
F-3.9
F-1.6
F0.8
F-1.6
F-2.3
F0.8
F0.8
F-0.8
F-6.3
F-13.3
F0.5
F-49.4
F-39.1
F3.9
F-2.3
F-14.9
F-14.1
F-20.3
tp44
a(F-1.9
F0.8
F-1.6
F-6.3
F2.3
F0.0
F-6.3
F-3.1
F-1.6
F-0.8
F-1.6
F-3.1
F0.8
F1.6
F-2.3
F-6.3
F-13.3
F1.3
F-22.7
F-31.2
F4.7
F-3.1
F-2.6
F-13.3
F-7.6
tp45
a(F-4.7
F2.3
F0.0
F-4.7
F1.6
F0.0
F-6.3
F-1.6
F-1.6
F0.8
F-1.6
F-0.0
F0.8
F-0.0
F-0.0
F-6.3
F-7.0
F5.5
F-1.0
F-11.2
F6.3
F-4.7
F2.9
F5.6
F0.8
tp46
a(F-7.0
F2.3
F0.0
F-7.8
F1.6
F0.0
F-6.3
F-0.8
F-1.6
F-0.0
F-1.6
F3.7
F-0.0
F-0.8
F-0.8
F-5.5
F-5.5
F3.9
F3.0
F9.5
F10.2
F-6.3
F5.1
F13.1
F6.3
tp47
a(F-3.1
F-0.8
F-0.8
F-3.9
F0.8
F0.0
F-6.3
F-2.3
F-0.8
F-1.6
F-1.6
F-2.3
F0.8
F-0.8
F-1.6
F-7.8
F-1.6
F-9.5
F8.5
F-56.6
F1.6
F0.5
F15.8
F-25.7
F-28.6
tp48
a(F-2.3
F-0.8
F-0.8
F-3.9
F-0.0
F0.0
F-6.3
F-1.6
F-0.8
F-0.0
F-2.3
F-2.3
F0.8
F-0.8
F-1.6
F-6.3
F1.6
F-5.4
F0.5
F-40.9
F2.3
F-1.6
F7.0
F-14.7
F-31.3
tp49
a(F-3.1
F-0.8
F-1.6
F-3.9
F-0.0
F0.0
F-6.3
F-2.3
F-0.0
F-0.0
F-0.8
F-2.3
F0.8
F-0.8
F-0.8
F-5.5
F2.3
F-5.8
F0.9
F-39.4
F2.3
F-1.6
F4.1
F-0.6
F-21.1
tp50
a(F-3.1
F-3.1
F-0.8
F-5.5
F-1.6
F0.8
F-6.3
F-1.6
F-0.8
F-0.0
F-0.8
F-2.3
F0.8
F0.8
F-0.8
F-6.3
F3.1
F-1.5
F-5.2
F-34.8
F2.3
F-0.8
F3.3
F3.7
F-27.4
tp51
a(F-3.9
F-4.7
F-3.1
F-7.0
F-1.6
F0.0
F-6.3
F-1.6
F-1.6
F-0.0
F-1.6
F-2.3
F-0.0
F0.8
F-0.8
F-7.0
F3.9
F-1.1
F-10.9
F-27.4
F5.3
F1.6
F36.2
F61.7
F-11.1
tp52
a(F-7.0
F-3.1
F-5.5
F-11.7
F-3.1
F0.0
F-7.0
F-2.3
F-1.6
F-1.6
F-1.6
F-2.3
F-0.0
F0.8
F-0.8
F-8.6
F4.7
F-5.5
F-15.6
F-25.8
F7.0
F-3.9
F3.4
F57.6
F-2.5
tp53
a(F-6.3
F4.7
F1.3
F-11.7
F-0.8
F0.0
F-6.3
F-2.3
F-1.6
F-1.6
F-0.8
F-2.3
F-0.8
F0.8
F-0.8
F-7.0
F3.1
F-5.5
F-15.6
F-9.9
F8.6
F0.8
F-2.1
F50.5
F-34.1
tp54
a(F-6.3
F6.3
F5.3
F-11.7
F3.9
F0.0
F-6.3
F-2.3
F-1.6
F-0.0
F-2.3
F-2.3
F-0.8
F0.8
F-0.8
F-7.0
F3.1
F-5.5
F-8.8
F-3.9
F8.6
F0.8
F1.1
F16.9
F-12.7
tp55
a(F-2.3
F4.7
F3.9
F-5.0
F4.7
F0.0
F-6.3
F-1.6
F-1.6
F-0.0
F-1.6
F-2.3
F-0.0
F0.8
F-1.6
F-7.0
F3.1
F-5.5
F-8.6
F-4.7
F8.6
F-0.0
F-3.7
F3.1
F10.9
tp56
asS'position'
p57
(lp58
(F1.89
F1.19
F0.75
F5.49
F-0.84
F-0.15
F-5.779999999999999
F-3.1899999999999977
F0.730000000000004
F0.04
F-0.04
F-3.450000000000003
F0.5900000000000034
F0.04
F-0.31
F-0.48
F-2.59
F4.55
F8.57
F-12.09
F3.12
F1.8
F-5.49
F15.25
F-8.04
tp59
a(F-0.22
F0.31
F0.13
F-0.57
F0.22
F-0.15
F-0.5
F-0.29000000000000625
F0.29000000000000625
F0.13
F-0.22
F-0.01999999999999602
F0.15000000000000568
F0.13
F-0.04
F-0.48
F0.31
F5.6
F-1.19
F-6.73
F0.48
F0.04
F-6.46
F6.64
F0.84
tp60
a(F-0.31
F0.31
F0.22
F-0.57
F0.13
F-0.15
F-0.5
F-0.20000000000000284
F0.29000000000000625
F0.13
F-0.13
F0.15000000000000568
F0.15000000000000568
F0.04
F-0.04
F-0.48
F0.22
F8.86
F-1.19
F-8.4
F0.57
F-0.04
F-6.73
F14.64
F-4.88
tp61
a(F-0.48
F0.31
F0.13
F-0.66
F0.22
F-0.15
F-0.5
F-0.20000000000000284
F0.29000000000000625
F0.04
F-0.13
F0.15000000000000568
F0.15000000000000568
F0.04
F-0.13
F-0.57
F0.22
F11.05
F-1.1
F-10.68
F0.48
F-0.13
F-7.78
F21.14
F-10.33
tp62
a(F-0.48
F0.31
F0.13
F-0.66
F0.22
F-0.15
F-0.5
F-0.29000000000000625
F0.29000000000000625
F0.04
F-0.13
F0.15000000000000568
F0.15000000000000568
F0.04
F-0.04
F-0.48
F0.22
F12.9
F-0.57
F-13.23
F0.57
F-0.13
F-7.78
F25.71
F-14.99
tp63
a(F-0.48
F0.48
F0.22
F-0.66
F0.48
F-0.15
F-0.5
F-0.37000000000000455
F0.29000000000000625
F0.04
F-0.13
F-0.29000000000000625
F0.15000000000000568
F0.04
F-0.13
F-0.48
F0.04
F9.3
F6.99
F-16.13
F0.57
F-0.31
F-5.67
F22.64
F-17.89
tp64
a(F-0.57
F0.4
F0.22
F-0.66
F0.48
F-0.15
F-0.5
F-0.37000000000000455
F0.29000000000000625
F0.13
F-0.22
F-0.20000000000000284
F0.15000000000000568
F0.04
F-0.04
F-0.57
F-0.22
F2.88
F19.12
F-16.75
F0.48
F-0.31
F-1.98
F14.55
F-14.46
tp65
a(F-0.48
F0.48
F0.22
F-0.66
F0.48
F-0.15
F-0.5
F-0.29000000000000625
F0.29000000000000625
F0.04
F-0.13
F-0.20000000000000284
F0.15000000000000568
F0.04
F-0.04
F-0.57
F-0.31
F-3.19
F30.46
F-17.01
F0.57
F-0.22
F1.27
F7.43
F-12.26
tp66
a(F-0.57
F0.48
F0.22
F-0.66
F0.48
F0.15
F-0.5
F-0.37000000000000455
F0.29000000000000625
F0.04
F-0.22
F-0.20000000000000284
F0.15000000000000568
F0.04
F-0.04
F-0.57
F-0.84
F-8.2
F39.43
F-16.92
F0.66
F-0.22
F4.26
F0.48
F-10.59
tp67
a(F-0.57
F0.48
F0.22
F-0.57
F0.4
F-0.15
F-0.5
F-0.37000000000000455
F0.10999999999999943
F0.04
F-0.13
F-0.29000000000000625
F0.15000000000000568
F0.13
F-0.13
F-0.57
F-1.27
F-10.66
F38.55
F-17.36
F0.57
F0.22
F4.88
F-0.92
F-10.59
tp68
a(F-0.66
F0.48
F0.4
F-0.66
F0.48
F-0.15
F-0.5
F-0.45999999999999375
F0.20000000000000284
F0.04
F-0.22
F-0.45999999999999375
F0.15000000000000568
F0.13
F-0.22
F-0.75
F-1.01
F-14.35
F21.85
F-17.27
F0.84
F-0.04
F5.14
F-1.54
F-9.1
tp69
a(F-0.66
F0.4
F0.31
F-0.66
F0.48
F-0.15
F-0.7899999999999991
F-0.45999999999999375
F0.29000000000000625
F0.04
F-0.22
F-0.37000000000000455
F0.15000000000000568
F0.13
F-0.22
F-0.75
F-1.27
F-11.36
F14.37
F-12.35
F0.4
F-0.04
F4.97
F-1.54
F-8.48
tp70
a(F-0.57
F-0.04
F-0.22
F-0.66
F0.04
F-0.15
F-0.7899999999999991
F-0.45999999999999375
F0.10999999999999943
F0.04
F-0.22
F-0.37000000000000455
F0.15000000000000568
F0.13
F-0.13
F-0.66
F-1.36
F-8.370000000000001
F6.9
F-7.34
F0.4
F-0.04
F4.7
F-1.54
F-7.69
tp71
a(F-0.57
F0.04
F-0.31
F-0.66
F-0.13
F-0.15
F-0.5
F-0.45999999999999375
F0.10999999999999943
F0.04
F-0.22
F-0.37000000000000455
F0.06999999999999318
F0.13
F-0.13
F-0.66
F-1.63
F-6.0
F2.07
F-3.91
F0.4
F-0.13
F4.7
F-1.45
F-7.43
tp72
a(F-0.57
F0.22
F-0.22
F-0.66
F0.22
F-0.15
F-0.5
F-0.45999999999999375
F-0.06999999999999318
F0.04
F-0.22
F-0.29000000000000625
F0.06999999999999318
F0.04
F-0.13
F-0.57
F-1.54
F-5.38
F-0.57
F-1.8
F0.4
F-0.22
F4.7
F-1.45
F-6.99
tp73
a(F-0.4
F0.22
F-0.22
F-0.66
F0.22
F-0.15
F-0.5
F-0.5499999999999972
F-0.06999999999999318
F0.04
F-0.22
F-0.29000000000000625
F0.06999999999999318
F0.04
F-0.13
F-0.66
F-1.54
F-6.18
F1.89
F-1.89
F0.4
F-0.22
F4.62
F-1.45
F-6.99
tp74
a(F-0.13
F0.22
F-0.13
F-0.57
F0.22
F-0.15
F-0.5
F-0.45999999999999375
F-0.06999999999999318
F0.04
F-0.13
F-0.37000000000000455
F0.06999999999999318
F0.13
F-0.22
F-0.66
F-1.54
F-7.41
F11.3
F-6.02
F0.48
F-0.31
F8.4
F-1.45
F-7.34
tp75
a(F-0.48
F0.22
F-0.04
F-0.57
F0.22
F-0.15
F-0.5
F-0.29000000000000625
F-0.06999999999999318
F0.04
F-0.22
F-0.01999999999999602
F0.06999999999999318
F0.04
F-0.04
F-0.66
F-0.84
F-7.76
F19.12
F-9.8
F0.57
F-0.4
F11.03
F0.04
F-9.27
tp76
a(F-0.75
F0.22
F-0.04
F-0.75
F0.22
F-0.15
F-0.5
F-0.20000000000000284
F-0.06999999999999318
F0.04
F-0.13
F0.23999999999999488
F-0.01999999999999602
F0.04
F-0.04
F-0.66
F-0.57
F-7.76
F24.4
F-14.46
F1.01
F-0.66
F13.58
F1.27
F-12.09
tp77
a(F-0.31
F0.04
F-0.13
F-0.48
F0.04
F-0.73
F-0.5
F-0.37000000000000455
F0.01999999999999602
F-0.04
F-0.13
F-0.29000000000000625
F0.06999999999999318
F0.04
F-0.13
F-0.92
F-0.13
F-6.35
F21.76
F-20.62
F0.04
F0.22
F10.15
F5.76
F-16.92
tp78
a(F-0.22
F0.04
F-0.13
F-0.48
F-0.04
F-0.73
F-0.5
F-0.29000000000000625
F0.01999999999999602
F-0.04
F-0.22
F-0.29000000000000625
F0.06999999999999318
F0.04
F-0.13
F-0.75
F0.22
F-2.57
F13.05
F-15.6
F0.13
F0.57
F3.03
F19.3
F-17.71
tp79
a(F-0.31
F0.04
F-0.13
F-0.48
F-0.04
F-0.73
F-0.5
F-0.37000000000000455
F0.10999999999999943
F-0.04
F-0.13
F-0.29000000000000625
F0.06999999999999318
F0.04
F-0.13
F-0.66
F0.31
F0.41999999999999993
F7.6
F-12.35
F0.13
F0.75
F-2.42
F30.11
F-17.71
tp80
a(F-0.31
F-0.4
F-0.13
F-0.66
F-0.13
F-0.73
F-0.5
F-0.29000000000000625
F0.01999999999999602
F-0.04
F-0.13
F-0.29000000000000625
F0.06999999999999318
F0.04
F-0.13
F-0.75
F0.4
F4.11
F0.31
F-8.75
F0.13
F1.1
F-8.13
F40.66
F-17.71
tp81
a(F-0.4
F-0.4
F-0.31
F-0.84
F-0.22
F-0.73
F-0.5
F-0.29000000000000625
F-0.06999999999999318
F-0.04
F-0.22
F-0.29000000000000625
F-0.01999999999999602
F0.04
F-0.13
F-0.75
F0.48
F4.46
F-1.19
F-7.6
F0.31
F1.27
F-10.33
F38.99
F-18.42
tp82
a(F-0.75
F-0.22
F-0.57
F-1.36
F-0.4
F-0.15
F-0.5
F-0.37000000000000455
F-0.06999999999999318
F-0.04
F-0.22
F-0.29000000000000625
F-0.01999999999999602
F0.04
F-0.13
F-0.92
F0.48
F3.8499999999999996
F-1.71
F-7.43
F0.66
F1.1
F-14.55
F26.24
F-16.22
tp83
a(F-0.66
F0.66
F-0.04
F-1.36
F-0.13
F0.15
F-0.5
F-0.37000000000000455
F-0.06999999999999318
F-0.04
F-0.13
F-0.29000000000000625
F-0.10999999999999943
F0.04
F-0.13
F-0.75
F0.31
F3.8499999999999996
F-1.71
F-6.02
F0.75
F1.54
F-11.3
F19.3
F-10.77
tp84
a(F-0.66
F0.66
F0.4
F-1.36
F0.48
F-0.15
F-0.7899999999999991
F-0.37000000000000455
F-0.06999999999999318
F-0.04
F-0.22
F-0.29000000000000625
F-0.10999999999999943
F0.04
F-0.13
F-0.75
F0.31
F3.8499999999999996
F-1.1
F-4.97
F0.75
F1.54
F-7.69
F9.8
F-3.3
tp85
a(F-0.31
F0.66
F0.4
F-0.66
F0.48
F-0.15
F-0.5
F-0.29000000000000625
F-0.06999999999999318
F-0.04
F-0.13
F-0.29000000000000625
F-0.01999999999999602
F0.04
F-0.13
F-0.75
F0.31
F3.8499999999999996
F-1.1
F-5.05
F0.75
F1.54
F-5.58
F2.42
F3.21
tp86
asS'speed'
p87
(lp88
(F-46.512
F-0.0
F0.0
F-60.192
F10.944
F2.664
F45.288
F51.983999999999995
F-10.944
F-0.0
F0.0
F62.928
F-5.472
F-0.0
F5.472
F0.0
F43.776
F-8.208
F-136.8
F98.49600000000001
F-13.680000000000001
F-10.944
F-0.0
F-169.632
F95.76
tp89
a(F-0.0
F-0.0
F0.0
F-0.0
F-0.0
F0.0
F-0.0
F0.0
F-0.0
F-0.0
F0.0
F-0.0
F-0.0
F-0.0
F-0.0
F0.0
F-0.0
F19.152
F0.0
F-10.944
F0.0
F-0.0
F-0.0
F41.04
F-27.360000000000003
tp90
a(F-0.0
F-0.0
F0.0
F-0.0
F-0.0
F0.0
F-0.0
F0.0
F-0.0
F-0.0
F0.0
F-0.0
F-0.0
F-0.0
F-0.0
F0.0
F-0.0
F19.152
F0.0
F-13.680000000000001
F0.0
F-0.0
F-5.472
F54.720000000000006
F-35.568
tp91
a(F-0.0
F-0.0
F0.0
F-0.0
F-0.0
F0.0
F-0.0
F0.0
F-0.0
F-0.0
F0.0
F-0.0
F-0.0
F-0.0
F-0.0
F0.0
F-0.0
F16.416
F0.0
F-16.416
F0.0
F-0.0
F-0.0
F41.04
F-30.096
tp92
a(F-0.0
F-0.0
F0.0
F-0.0
F-0.0
F0.0
F-0.0
F0.0
F-0.0
F-0.0
F0.0
F-0.0
F-0.0
F-0.0
F-0.0
F0.0
F-0.0
F21.888
F0.0
F-19.152
F0.0
F-0.0
F-0.0
F43.776
F-43.776
tp93
a(F-0.0
F-0.0
F0.0
F-0.0
F-0.0
F2.664
F-0.0
F0.0
F-0.0
F-0.0
F0.0
F-0.0
F-0.0
F-0.0
F-0.0
F0.0
F-0.0
F-21.888
F46.512
F0.0
F0.0
F-0.0
F10.944
F-27.360000000000003
F10.944
tp94
a(F-0.0
F-0.0
F0.0
F-0.0
F-0.0
F0.0
F-0.0
F0.0
F-0.0
F-0.0
F0.0
F-0.0
F-0.0
F-0.0
F-0.0
F0.0
F-0.0
F-21.888
F49.248000000000005
F0.0
F0.0
F-0.0
F8.208
F-24.624000000000002
F5.472
tp95
a(F-0.0
F-0.0
F0.0
F-0.0
F-0.0
F0.0
F-0.0
F0.0
F-0.0
F-0.0
F0.0
F-0.0
F-0.0
F-0.0
F-0.0
F0.0
F-0.0
F-19.152
F41.04
F0.0
F0.0
F-0.0
F10.944
F-24.624000000000002
F-0.0
tp96
a(F-0.0
F-0.0
F0.0
F-0.0
F-0.0
F0.0
F-0.0
F0.0
F-0.0
F-0.0
F0.0
F-0.0
F-0.0
F-0.0
F-0.0
F0.0
F-0.0
F-19.152
F46.512
F0.0
F0.0
F-0.0
F16.416
F-32.832
F-0.0
tp97
a(F-0.0
F-0.0
F0.0
F-0.0
F-0.0
F0.0
F-0.0
F0.0
F-0.0
F-0.0
F0.0
F-0.0
F-0.0
F-0.0
F-0.0
F0.0
F-13.680000000000001
F-38.304
F-76.608
F-21.888
F0.0
F-0.0
F-0.0
F-0.0
F-0.0
tp98
a(F-0.0
F-0.0
F0.0
F-0.0
F-0.0
F0.0
F-0.0
F0.0
F-0.0
F-0.0
F0.0
F-0.0
F-0.0
F-0.0
F-0.0
F0.0
F-0.0
F10.944
F-24.624000000000002
F19.152
F0.0
F-0.0
F-0.0
F-0.0
F-0.0
tp99
a(F-0.0
F-0.0
F0.0
F-0.0
F-0.0
F0.0
F-0.0
F0.0
F-0.0
F-0.0
F0.0
F-0.0
F-0.0
F-0.0
F-0.0
F0.0
F-0.0
F19.152
F-51.983999999999995
F30.096
F0.0
F-0.0
F-0.0
F-0.0
F8.208
tp100
a(F-0.0
F-0.0
F0.0
F-0.0
F-0.0
F0.0
F-0.0
F0.0
F-5.472
F-0.0
F0.0
F-0.0
F-0.0
F-0.0
F-0.0
F0.0
F-0.0
F19.152
F-51.983999999999995
F30.096
F0.0
F-0.0
F-0.0
F-0.0
F-0.0
tp101
a(F-0.0
F-0.0
F0.0
F-0.0
F-0.0
F0.0
F-0.0
F0.0
F-0.0
F-0.0
F0.0
F-0.0
F-0.0
F-0.0
F-0.0
F0.0
F-0.0
F27.360000000000003
F-51.983999999999995
F30.096
F0.0
F-0.0
F-0.0
F-0.0
F-0.0
tp102
a(F-0.0
F-0.0
F0.0
F-0.0
F-0.0
F0.0
F-0.0
F0.0
F-0.0
F-0.0
F0.0
F-0.0
F-0.0
F-0.0
F-0.0
F0.0
F-0.0
F0.0
F0.0
F0.0
F0.0
F-0.0
F-0.0
F-0.0
F-0.0
tp103
a(F-0.0
F-0.0
F0.0
F-0.0
F-0.0
F0.0
F-0.0
F0.0
F-0.0
F-0.0
F0.0
F-0.0
F-0.0
F-0.0
F-0.0
F0.0
F-0.0
F-5.472
F24.624000000000002
F0.0
F0.0
F-0.0
F-0.0
F-0.0
F-0.0
tp104
a(F-5.472
F-0.0
F0.0
F-0.0
F-0.0
F0.0
F-0.0
F0.0
F-0.0
F-0.0
F0.0
F-0.0
F-0.0
F-0.0
F-0.0
F0.0
F-0.0
F-5.472
F43.776
F-24.624000000000002
F0.0
F-0.0
F13.680000000000001
F-0.0
F-5.472
tp105
a(F-0.0
F-0.0
F0.0
F-0.0
F-0.0
F0.0
F-0.0
F0.0
F-0.0
F-0.0
F0.0
F-0.0
F-0.0
F-0.0
F-0.0
F0.0
F-0.0
F0.0
F71.136
F-35.568
F0.0
F-0.0
F21.888
F19.152
F-21.888
tp106
a(F-0.0
F-0.0
F0.0
F-0.0
F-0.0
F0.0
F-0.0
F0.0
F-0.0
F-0.0
F0.0
F5.472
F-0.0
F-0.0
F-0.0
F0.0
F-0.0
F0.0
F46.512
F-46.512
F0.0
F-0.0
F24.624000000000002
F5.472
F-21.888
tp107
a(F-0.0
F-0.0
F0.0
F-0.0
F-0.0
F0.0
F-0.0
F0.0
F-0.0
F-0.0
F0.0
F-0.0
F-0.0
F-0.0
F-0.0
F0.0
F-0.0
F10.944
F-19.152
F8.208
F0.0
F8.208
F-21.888
F41.04
F-8.208
tp108
a(F-0.0
F-0.0
F0.0
F-0.0
F-0.0
F0.0
F-0.0
F0.0
F-0.0
F-0.0
F0.0
F-0.0
F-0.0
F-0.0
F-0.0
F0.0
F-0.0
F8.208
F-13.680000000000001
F5.472
F0.0
F-0.0
F-0.0
F16.416
F-0.0
tp109
a(F-0.0
F-0.0
F0.0
F-0.0
F-0.0
F0.0
F-0.0
F0.0
F-0.0
F-0.0
F0.0
F-0.0
F-0.0
F-0.0
F-0.0
F0.0
F-0.0
F13.680000000000001
F-24.624000000000002
F8.208
F0.0
F-0.0
F-21.888
F60.192
F-0.0
tp110
a(F-0.0
F-0.0
F0.0
F-0.0
F-0.0
F2.664
F-0.0
F0.0
F-0.0
F-0.0
F0.0
F-0.0
F-0.0
F-0.0
F-0.0
F0.0
F-0.0
F8.208
F-30.096
F10.944
F0.0
F-0.0
F-21.888
F49.248000000000005
F-0.0
tp111
a(F-0.0
F-0.0
F0.0
F-0.0
F-0.0
F0.0
F-0.0
F0.0
F-0.0
F-0.0
F0.0
F-0.0
F-0.0
F-0.0
F-0.0
F0.0
F-0.0
F-5.472
F0.0
F0.0
F5.472
F-0.0
F-32.832
F-84.816
F-16.416
tp112
a(F-0.0
F-0.0
F0.0
F-0.0
F-0.0
F0.0
F-2.664
F0.0
F-0.0
F-0.0
F0.0
F-0.0
F-0.0
F-0.0
F-0.0
F0.0
F-0.0
F0.0
F0.0
F0.0
F0.0
F-0.0
F5.472
F-13.680000000000001
F27.360000000000003
tp113
a(F-0.0
F-0.0
F8.208
F-0.0
F-0.0
F0.0
F-0.0
F0.0
F-0.0
F-0.0
F0.0
F-0.0
F-0.0
F-0.0
F-0.0
F0.0
F-0.0
F0.0
F0.0
F13.680000000000001
F0.0
F-0.0
F16.416
F-35.568
F35.568
tp114
a(F-0.0
F-0.0
F5.472
F-0.0
F-0.0
F0.0
F-0.0
F0.0
F-0.0
F-0.0
F0.0
F-0.0
F-0.0
F-0.0
F-0.0
F0.0
F-0.0
F0.0
F5.472
F0.0
F0.0
F-0.0
F16.416
F-57.456
F49.248000000000005
tp115
a(F-0.0
F-0.0
F0.0
F8.208
F-0.0
F0.0
F-0.0
F0.0
F-0.0
F-0.0
F0.0
F-0.0
F-0.0
F-0.0
F-0.0
F0.0
F-0.0
F0.0
F0.0
F0.0
F0.0
F-0.0
F27.360000000000003
F-65.664
F46.512
tp116
asS'voltage'
p117
(lp118
(F11.600000000000001
F11.200000000000001
F11.4
F11.4
F11.700000000000001
F11.100000000000001
F11.4
F11.200000000000001
F11.200000000000001
F11.100000000000001
F11.5
F11.600000000000001
F11.100000000000001
F11.3
F11.4
F11.3
F11.3
F11.4
F11.3
F11.100000000000001
F11.5
F11.3
F11.200000000000001
F11.200000000000001
F11.3
tp119
a(F11.600000000000001
F11.200000000000001
F11.4
F11.4
F11.600000000000001
F11.100000000000001
F11.4
F11.200000000000001
F11.200000000000001
F11.100000000000001
F11.4
F11.5
F11.0
F11.200000000000001
F11.3
F11.3
F11.4
F11.4
F11.3
F11.0
F11.5
F11.3
F11.200000000000001
F11.3
F11.4
tp120
a(F11.600000000000001
F11.200000000000001
F11.4
F11.4
F11.600000000000001
F11.100000000000001
F11.4
F11.200000000000001
F11.200000000000001
F11.100000000000001
F11.4
F11.5
F11.0
F11.200000000000001
F11.3
F11.3
F11.4
F11.4
F11.3
F11.0
F11.5
F11.3
F11.200000000000001
F11.3
F11.4
tp121
a(F11.600000000000001
F11.200000000000001
F11.4
F11.4
F11.600000000000001
F11.100000000000001
F11.4
F11.200000000000001
F11.200000000000001
F11.100000000000001
F11.4
F11.5
F11.0
F11.200000000000001
F11.3
F11.3
F11.4
F11.4
F11.3
F11.0
F11.5
F11.3
F11.200000000000001
F11.3
F11.4
tp122
a(F11.600000000000001
F11.200000000000001
F11.4
F11.4
F11.600000000000001
F11.100000000000001
F11.4
F11.200000000000001
F11.200000000000001
F11.100000000000001
F11.4
F11.5
F11.0
F11.200000000000001
F11.3
F11.3
F11.4
F11.4
F11.3
F11.0
F11.5
F11.3
F11.200000000000001
F11.3
F11.4
tp123
a(F11.5
F11.200000000000001
F11.3
F11.3
F11.600000000000001
F11.100000000000001
F11.4
F11.100000000000001
F11.100000000000001
F11.0
F11.3
F11.5
F11.0
F11.200000000000001
F11.3
F11.200000000000001
F11.3
F11.3
F11.100000000000001
F10.9
F11.4
F11.3
F11.100000000000001
F11.100000000000001
F11.100000000000001
tp124
a(F11.5
F11.200000000000001
F11.3
F11.3
F11.600000000000001
F11.100000000000001
F11.4
F11.100000000000001
F11.100000000000001
F11.0
F11.3
F11.5
F11.0
F11.200000000000001
F11.3
F11.200000000000001
F11.3
F11.3
F11.100000000000001
F10.9
F11.4
F11.3
F11.100000000000001
F11.100000000000001
F11.100000000000001
tp125
a(F11.3
F11.100000000000001
F11.200000000000001
F11.200000000000001
F11.5
F11.100000000000001
F11.3
F11.100000000000001
F11.0
F11.0
F11.3
F11.4
F10.9
F11.100000000000001
F11.200000000000001
F10.9
F11.0
F10.9
F10.700000000000001
F10.700000000000001
F11.100000000000001
F10.9
F10.700000000000001
F10.8
F10.9
tp126
a(F11.3
F11.100000000000001
F11.200000000000001
F11.200000000000001
F11.5
F11.100000000000001
F11.3
F11.100000000000001
F11.0
F11.0
F11.3
F11.4
F10.9
F11.100000000000001
F11.200000000000001
F10.9
F11.0
F10.9
F10.700000000000001
F10.700000000000001
F11.100000000000001
F10.9
F10.700000000000001
F10.8
F10.9
tp127
a(F11.5
F11.100000000000001
F11.3
F11.3
F11.5
F11.100000000000001
F11.3
F11.100000000000001
F11.100000000000001
F11.0
F11.3
F11.5
F11.0
F11.200000000000001
F11.200000000000001
F10.600000000000001
F10.8
F10.8
F10.600000000000001
F10.3
F10.9
F10.700000000000001
F10.5
F10.4
F10.4
tp128
a(F11.5
F11.200000000000001
F11.3
F11.3
F11.600000000000001
F11.100000000000001
F11.4
F11.100000000000001
F11.100000000000001
F11.0
F11.4
F11.5
F11.0
F11.200000000000001
F11.3
F10.700000000000001
F10.8
F10.8
F10.700000000000001
F10.5
F10.9
F10.8
F10.5
F10.600000000000001
F10.700000000000001
tp129
a(F11.5
F11.200000000000001
F11.3
F11.3
F11.600000000000001
F11.100000000000001
F11.4
F11.100000000000001
F11.100000000000001
F11.0
F11.4
F11.5
F11.0
F11.200000000000001
F11.3
F10.700000000000001
F10.8
F10.8
F10.700000000000001
F10.5
F10.9
F10.8
F10.5
F10.600000000000001
F10.700000000000001
tp130
a(F11.5
F11.200000000000001
F11.3
F11.3
F11.600000000000001
F11.100000000000001
F11.4
F11.100000000000001
F11.100000000000001
F11.0
F11.4
F11.5
F11.0
F11.200000000000001
F11.3
F10.700000000000001
F10.8
F10.8
F10.700000000000001
F10.5
F10.9
F10.8
F10.5
F10.600000000000001
F10.700000000000001
tp131
a(F11.4
F11.100000000000001
F11.200000000000001
F11.3
F11.5
F11.100000000000001
F11.3
F11.100000000000001
F11.100000000000001
F11.0
F11.200000000000001
F11.4
F10.9
F11.100000000000001
F11.200000000000001
F10.600000000000001
F10.600000000000001
F10.4
F10.4
F10.100000000000001
F10.8
F10.700000000000001
F10.4
F10.5
F10.4
tp132
a(F11.5
F11.100000000000001
F11.3
F11.3
F11.5
F11.100000000000001
F11.3
F11.100000000000001
F11.100000000000001
F11.0
F11.3
F11.5
F11.0
F11.200000000000001
F11.200000000000001
F10.700000000000001
F10.700000000000001
F10.700000000000001
F10.600000000000001
F10.4
F10.9
F10.700000000000001
F10.600000000000001
F10.600000000000001
F10.700000000000001
tp133
a(F11.4
F11.100000000000001
F11.3
F11.200000000000001
F11.5
F11.100000000000001
F11.3
F11.100000000000001
F11.100000000000001
F11.0
F11.3
F11.5
F10.9
F11.200000000000001
F11.200000000000001
F10.600000000000001
F10.600000000000001
F10.5
F10.5
F10.3
F10.9
F10.700000000000001
F10.5
F10.600000000000001
F10.600000000000001
tp134
a(F11.4
F11.100000000000001
F11.3
F11.200000000000001
F11.5
F11.100000000000001
F11.3
F11.100000000000001
F11.100000000000001
F11.0
F11.3
F11.5
F10.9
F11.200000000000001
F11.200000000000001
F10.600000000000001
F10.600000000000001
F10.5
F10.5
F10.3
F10.9
F10.700000000000001
F10.5
F10.600000000000001
F10.600000000000001
tp135
a(F11.4
F11.100000000000001
F11.3
F11.200000000000001
F11.5
F11.100000000000001
F11.3
F11.100000000000001
F11.100000000000001
F11.0
F11.3
F11.5
F10.9
F11.200000000000001
F11.200000000000001
F10.600000000000001
F10.600000000000001
F10.5
F10.5
F10.3
F10.9
F10.700000000000001
F10.5
F10.600000000000001
F10.600000000000001
tp136
a(F11.5
F11.100000000000001
F11.4
F11.3
F11.600000000000001
F11.0
F11.4
F11.200000000000001
F11.100000000000001
F11.100000000000001
F11.4
F11.5
F11.0
F11.200000000000001
F11.3
F10.9
F11.0
F10.9
F10.9
F10.700000000000001
F11.200000000000001
F11.0
F10.700000000000001
F10.9
F11.0
tp137
a(F11.5
F11.200000000000001
F11.3
F11.3
F11.600000000000001
F11.100000000000001
F11.4
F11.200000000000001
F11.200000000000001
F11.100000000000001
F11.4
F11.5
F11.0
F11.200000000000001
F11.3
F10.8
F10.8
F10.8
F10.8
F10.5
F11.0
F10.9
F10.700000000000001
F10.700000000000001
F10.8
tp138
a(F11.4
F11.0
F11.3
F11.200000000000001
F11.5
F11.0
F11.3
F11.0
F11.0
F10.9
F11.3
F11.4
F10.9
F11.100000000000001
F11.200000000000001
F10.5
F10.600000000000001
F10.3
F10.3
F10.100000000000001
F10.700000000000001
F10.600000000000001
F10.200000000000001
F10.4
F10.4
tp139
a(F11.4
F11.0
F11.3
F11.200000000000001
F11.5
F11.0
F11.3
F11.0
F11.0
F10.9
F11.3
F11.4
F10.9
F11.100000000000001
F11.200000000000001
F10.5
F10.600000000000001
F10.3
F10.3
F10.100000000000001
F10.700000000000001
F10.600000000000001
F10.200000000000001
F10.4
F10.4
tp140
a(F11.4
F11.0
F11.3
F11.200000000000001
F11.5
F11.0
F11.3
F11.0
F11.0
F10.9
F11.3
F11.4
F10.9
F11.100000000000001
F11.200000000000001
F10.5
F10.600000000000001
F10.3
F10.3
F10.100000000000001
F10.700000000000001
F10.600000000000001
F10.200000000000001
F10.4
F10.4
tp141
a(F11.5
F11.200000000000001
F11.4
F11.3
F11.5
F11.100000000000001
F11.4
F11.100000000000001
F11.100000000000001
F11.0
F11.3
F11.5
F11.0
F11.200000000000001
F11.3
F10.5
F10.600000000000001
F10.700000000000001
F10.5
F10.3
F10.8
F10.600000000000001
F10.5
F10.5
F10.4
tp142
a(F11.5
F11.100000000000001
F11.3
F11.3
F11.5
F11.100000000000001
F11.3
F11.100000000000001
F11.100000000000001
F11.0
F11.3
F11.5
F10.9
F11.100000000000001
F11.200000000000001
F10.600000000000001
F10.600000000000001
F10.700000000000001
F10.5
F10.3
F10.8
F10.700000000000001
F10.5
F10.5
F10.600000000000001
tp143
a(F11.5
F11.100000000000001
F11.3
F11.3
F11.5
F11.100000000000001
F11.3
F11.100000000000001
F11.100000000000001
F11.0
F11.3
F11.5
F10.9
F11.100000000000001
F11.200000000000001
F10.600000000000001
F10.600000000000001
F10.700000000000001
F10.5
F10.3
F10.8
F10.700000000000001
F10.5
F10.5
F10.600000000000001
tp144
a(F11.5
F11.100000000000001
F11.3
F11.3
F11.5
F11.100000000000001
F11.3
F11.100000000000001
F11.100000000000001
F11.0
F11.3
F11.5
F10.9
F11.100000000000001
F11.200000000000001
F10.600000000000001
F10.600000000000001
F10.700000000000001
F10.5
F10.3
F10.8
F10.700000000000001
F10.5
F10.5
F10.600000000000001
tp145
a(F11.5
F11.100000000000001
F11.3
F11.3
F11.5
F11.100000000000001
F11.3
F11.100000000000001
F11.100000000000001
F11.0
F11.3
F11.5
F10.9
F11.100000000000001
F11.200000000000001
F10.600000000000001
F10.600000000000001
F10.700000000000001
F10.5
F10.3
F10.8
F10.700000000000001
F10.5
F10.5
F10.600000000000001
tp146
asS'temperature'
p147
(lp148
(F33.0
F34.0
F33.0
F35.0
F34.0
F37.0
F39.0
F33.0
F33.0
F32.0
F32.0
F33.0
F33.0
F32.0
F33.0
F33.0
F32.0
F31.0
F31.0
F34.0
F34.0
F32.0
F32.0
F32.0
F36.0
tp149
a(F33.0
F34.0
F33.0
F35.0
F35.0
F37.0
F43.0
F33.0
F33.0
F32.0
F32.0
F33.0
F33.0
F32.0
F33.0
F33.0
F33.0
F31.0
F32.0
F34.0
F34.0
F32.0
F32.0
F32.0
F36.0
tp150
a(F33.0
F34.0
F33.0
F35.0
F35.0
F37.0
F43.0
F33.0
F33.0
F32.0
F32.0
F33.0
F33.0
F32.0
F33.0
F33.0
F33.0
F31.0
F32.0
F34.0
F34.0
F32.0
F32.0
F32.0
F36.0
tp151
a(F33.0
F34.0
F33.0
F35.0
F35.0
F37.0
F43.0
F33.0
F33.0
F32.0
F32.0
F33.0
F33.0
F32.0
F33.0
F33.0
F33.0
F31.0
F32.0
F34.0
F34.0
F32.0
F32.0
F32.0
F36.0
tp152
a(F33.0
F34.0
F33.0
F35.0
F35.0
F37.0
F43.0
F33.0
F33.0
F32.0
F32.0
F33.0
F33.0
F32.0
F33.0
F33.0
F33.0
F31.0
F32.0
F34.0
F34.0
F32.0
F32.0
F32.0
F36.0
tp153
a(F33.0
F34.0
F33.0
F35.0
F35.0
F37.0
F44.0
F33.0
F33.0
F32.0
F32.0
F33.0
F33.0
F32.0
F33.0
F33.0
F33.0
F31.0
F31.0
F34.0
F34.0
F32.0
F32.0
F32.0
F36.0
tp154
a(F33.0
F34.0
F33.0
F35.0
F35.0
F37.0
F44.0
F33.0
F33.0
F32.0
F32.0
F33.0
F33.0
F32.0
F33.0
F33.0
F33.0
F31.0
F31.0
F34.0
F34.0
F32.0
F32.0
F32.0
F36.0
tp155
a(F34.0
F34.0
F33.0
F35.0
F35.0
F37.0
F44.0
F33.0
F33.0
F32.0
F32.0
F33.0
F33.0
F32.0
F33.0
F33.0
F33.0
F31.0
F32.0
F34.0
F34.0
F32.0
F32.0
F32.0
F36.0
tp156
a(F34.0
F34.0
F33.0
F35.0
F35.0
F37.0
F44.0
F33.0
F33.0
F32.0
F32.0
F33.0
F33.0
F32.0
F33.0
F33.0
F33.0
F31.0
F32.0
F34.0
F34.0
F32.0
F32.0
F32.0
F36.0
tp157
a(F34.0
F34.0
F33.0
F35.0
F35.0
F37.0
F44.0
F33.0
F33.0
F32.0
F32.0
F33.0
F33.0
F32.0
F33.0
F33.0
F33.0
F31.0
F32.0
F34.0
F34.0
F32.0
F32.0
F32.0
F36.0
tp158
a(F34.0
F34.0
F33.0
F35.0
F35.0
F37.0
F44.0
F33.0
F33.0
F32.0
F32.0
F33.0
F33.0
F32.0
F33.0
F33.0
F33.0
F31.0
F35.0
F34.0
F34.0
F33.0
F32.0
F32.0
F36.0
tp159
a(F34.0
F34.0
F33.0
F35.0
F35.0
F37.0
F44.0
F33.0
F33.0
F32.0
F32.0
F33.0
F33.0
F32.0
F33.0
F33.0
F33.0
F31.0
F35.0
F34.0
F34.0
F33.0
F32.0
F32.0
F36.0
tp160
a(F34.0
F34.0
F33.0
F35.0
F35.0
F37.0
F44.0
F33.0
F33.0
F32.0
F32.0
F33.0
F33.0
F32.0
F33.0
F33.0
F33.0
F31.0
F35.0
F34.0
F34.0
F33.0
F32.0
F32.0
F36.0
tp161
a(F34.0
F34.0
F33.0
F35.0
F35.0
F37.0
F44.0
F33.0
F33.0
F32.0
F32.0
F33.0
F33.0
F32.0
F33.0
F33.0
F33.0
F31.0
F32.0
F34.0
F34.0
F33.0
F32.0
F32.0
F36.0
tp162
a(F34.0
F34.0
F32.0
F35.0
F35.0
F37.0
F45.0
F33.0
F33.0
F32.0
F32.0
F33.0
F33.0
F32.0
F33.0
F33.0
F33.0
F31.0
F32.0
F34.0
F34.0
F33.0
F32.0
F32.0
F36.0
tp163
a(F34.0
F34.0
F33.0
F35.0
F35.0
F37.0
F45.0
F33.0
F33.0
F32.0
F32.0
F33.0
F33.0
F32.0
F33.0
F33.0
F33.0
F31.0
F32.0
F34.0
F34.0
F33.0
F32.0
F32.0
F36.0
tp164
a(F34.0
F34.0
F33.0
F35.0
F35.0
F37.0
F45.0
F33.0
F33.0
F32.0
F32.0
F33.0
F33.0
F32.0
F33.0
F33.0
F33.0
F31.0
F32.0
F34.0
F34.0
F33.0
F32.0
F32.0
F36.0
tp165
a(F34.0
F34.0
F33.0
F35.0
F34.0
F37.0
F45.0
F33.0
F35.0
F32.0
F32.0
F33.0
F31.0
F32.0
F33.0
F33.0
F33.0
F31.0
F32.0
F34.0
F34.0
F33.0
F32.0
F32.0
F36.0
tp166
a(F34.0
F34.0
F33.0
F35.0
F34.0
F37.0
F45.0
F33.0
F35.0
F32.0
F32.0
F33.0
F31.0
F32.0
F33.0
F33.0
F33.0
F31.0
F32.0
F34.0
F34.0
F33.0
F32.0
F32.0
F36.0
tp167
a(F34.0
F34.0
F33.0
F36.0
F35.0
F37.0
F46.0
F33.0
F33.0
F32.0
F32.0
F33.0
F33.0
F32.0
F33.0
F32.0
F33.0
F31.0
F32.0
F35.0
F35.0
F33.0
F32.0
F32.0
F36.0
tp168
a(F34.0
F34.0
F33.0
F36.0
F35.0
F37.0
F46.0
F33.0
F33.0
F32.0
F32.0
F33.0
F33.0
F32.0
F33.0
F33.0
F33.0
F31.0
F32.0
F35.0
F35.0
F33.0
F32.0
F32.0
F36.0
tp169
a(F34.0
F34.0
F33.0
F36.0
F35.0
F37.0
F46.0
F33.0
F33.0
F32.0
F32.0
F33.0
F33.0
F32.0
F33.0
F33.0
F33.0
F31.0
F32.0
F35.0
F35.0
F33.0
F32.0
F32.0
F36.0
tp170
a(F34.0
F34.0
F33.0
F36.0
F35.0
F37.0
F46.0
F33.0
F33.0
F32.0
F32.0
F33.0
F33.0
F32.0
F33.0
F33.0
F33.0
F31.0
F32.0
F35.0
F35.0
F33.0
F32.0
F32.0
F36.0
tp171
a(F34.0
F34.0
F33.0
F37.0
F35.0
F37.0
F47.0
F33.0
F33.0
F33.0
F32.0
F33.0
F33.0
F32.0
F33.0
F33.0
F33.0
F31.0
F32.0
F35.0
F35.0
F33.0
F32.0
F32.0
F36.0
tp172
a(F34.0
F34.0
F33.0
F36.0
F35.0
F37.0
F47.0
F33.0
F33.0
F33.0
F32.0
F33.0
F33.0
F32.0
F33.0
F34.0
F33.0
F31.0
F32.0
F35.0
F35.0
F33.0
F32.0
F32.0
F37.0
tp173
a(F34.0
F34.0
F33.0
F36.0
F35.0
F37.0
F47.0
F33.0
F33.0
F33.0
F32.0
F33.0
F33.0
F32.0
F33.0
F34.0
F33.0
F31.0
F32.0
F35.0
F35.0
F33.0
F32.0
F32.0
F37.0
tp174
a(F34.0
F34.0
F33.0
F36.0
F35.0
F37.0
F47.0
F33.0
F33.0
F33.0
F32.0
F33.0
F33.0
F32.0
F33.0
F34.0
F33.0
F31.0
F32.0
F35.0
F35.0
F33.0
F32.0
F32.0
F37.0
tp175
a(F34.0
F34.0
F33.0
F36.0
F35.0
F37.0
F47.0
F33.0
F33.0
F33.0
F32.0
F33.0
F33.0
F32.0
F33.0
F34.0
F33.0
F31.0
F32.0
F35.0
F35.0
F33.0
F32.0
F32.0
F37.0
tp176
as(lp177
F0.3513319492340088
aF0.130659818649292
aF0.17092609405517578
aF0.15162396430969238
aF0.11803007125854492
aF0.2558319568634033
aF0.2523338794708252
aF0.2479250431060791
aF0.2435929775238037
aF0.0831761360168457
aF0.1951310634613037
aF0.18593883514404297
aF0.15569400787353516
aF0.13660693168640137
aF0.6316690444946289
aF0.1307830810546875
aF0.17060494422912598
aF0.1517040729522705
aF0.11830615997314453
aF0.25586915016174316
aF0.2527039051055908
aF0.2479720115661621
aF0.24377202987670898
aF0.08439087867736816
aF0.19517087936401367
aF0.18591904640197754
aF0.15543389320373535
aF0.1365041732788086
atp178
.